ARM GAS  C:\Users\vuyani\AppData\Local\Temp\ccwdY4Wa.s 			page 1


   1              		.cpu cortex-m0
   2              		.arch armv6s-m
   3              		.fpu softvfp
   4              		.eabi_attribute 20, 1
   5              		.eabi_attribute 21, 1
   6              		.eabi_attribute 23, 3
   7              		.eabi_attribute 24, 1
   8              		.eabi_attribute 25, 1
   9              		.eabi_attribute 26, 1
  10              		.eabi_attribute 30, 1
  11              		.eabi_attribute 34, 0
  12              		.eabi_attribute 18, 4
  13              		.file	"main.c"
  14              		.text
  15              	.Ltext0:
  16              		.cfi_sections	.debug_frame
  17              		.file 1 "Core/Src/main.c"
  18              		.section	.text.MX_GPIO_Init,"ax",%progbits
  19              		.align	1
  20              		.syntax unified
  21              		.code	16
  22              		.thumb_func
  24              	MX_GPIO_Init:
  25              	.LFB346:
   1:Core/Src/main.c **** /* USER CODE BEGIN Header */
   2:Core/Src/main.c **** /**
   3:Core/Src/main.c ****   ******************************************************************************
   4:Core/Src/main.c ****   * @file           : main.c
   5:Core/Src/main.c ****   * @brief          : Main program body
   6:Core/Src/main.c ****   ******************************************************************************
   7:Core/Src/main.c ****   * @attention
   8:Core/Src/main.c ****   *
   9:Core/Src/main.c ****   * Copyright (c) 2023 STMicroelectronics.
  10:Core/Src/main.c ****   * All rights reserved.
  11:Core/Src/main.c ****   *
  12:Core/Src/main.c ****   * This software is licensed under terms that can be found in the LICENSE file
  13:Core/Src/main.c ****   * in the root directory of this software component.
  14:Core/Src/main.c ****   * If no LICENSE file comes with this software, it is provided AS-IS.
  15:Core/Src/main.c ****   *
  16:Core/Src/main.c ****   ******************************************************************************
  17:Core/Src/main.c ****   */
  18:Core/Src/main.c **** /* USER CODE END Header */
  19:Core/Src/main.c **** /* Includes ------------------------------------------------------------------*/
  20:Core/Src/main.c **** #include "main.h"
  21:Core/Src/main.c **** 
  22:Core/Src/main.c **** /* Private includes ----------------------------------------------------------*/
  23:Core/Src/main.c **** /* USER CODE BEGIN Includes */
  24:Core/Src/main.c **** #include <stdint.h>
  25:Core/Src/main.c **** #include "stm32f0xx.h"
  26:Core/Src/main.c **** /* USER CODE END Includes */
  27:Core/Src/main.c **** 
  28:Core/Src/main.c **** /* Private typedef -----------------------------------------------------------*/
  29:Core/Src/main.c **** /* USER CODE BEGIN PTD */
  30:Core/Src/main.c **** 
  31:Core/Src/main.c **** /* USER CODE END PTD */
  32:Core/Src/main.c **** 
  33:Core/Src/main.c **** /* Private define ------------------------------------------------------------*/
ARM GAS  C:\Users\vuyani\AppData\Local\Temp\ccwdY4Wa.s 			page 2


  34:Core/Src/main.c **** /* USER CODE BEGIN PD */
  35:Core/Src/main.c **** /* USER CODE END PD */
  36:Core/Src/main.c **** 
  37:Core/Src/main.c **** /* Private macro -------------------------------------------------------------*/
  38:Core/Src/main.c **** /* USER CODE BEGIN PM */
  39:Core/Src/main.c **** 
  40:Core/Src/main.c **** /* USER CODE END PM */
  41:Core/Src/main.c **** 
  42:Core/Src/main.c **** /* Private variables ---------------------------------------------------------*/
  43:Core/Src/main.c **** TIM_HandleTypeDef htim16;
  44:Core/Src/main.c **** 
  45:Core/Src/main.c **** /* USER CODE BEGIN PV */
  46:Core/Src/main.c **** // TODO: Define input variables
  47:Core/Src/main.c **** 
  48:Core/Src/main.c **** 
  49:Core/Src/main.c **** /* USER CODE END PV */
  50:Core/Src/main.c **** 
  51:Core/Src/main.c **** /* Private function prototypes -----------------------------------------------*/
  52:Core/Src/main.c **** void SystemClock_Config(void);
  53:Core/Src/main.c **** static void MX_GPIO_Init(void);
  54:Core/Src/main.c **** static void MX_TIM16_Init(void);
  55:Core/Src/main.c **** /* USER CODE BEGIN PFP */
  56:Core/Src/main.c **** void TIM16_IRQHandler(void);
  57:Core/Src/main.c **** /* USER CODE END PFP */
  58:Core/Src/main.c **** 
  59:Core/Src/main.c **** /* Private user code ---------------------------------------------------------*/
  60:Core/Src/main.c **** /* USER CODE BEGIN 0 */
  61:Core/Src/main.c **** 
  62:Core/Src/main.c **** /* USER CODE END 0 */
  63:Core/Src/main.c **** 
  64:Core/Src/main.c **** /**
  65:Core/Src/main.c ****   * @brief  The application entry point.
  66:Core/Src/main.c ****   * @retval int
  67:Core/Src/main.c ****   */
  68:Core/Src/main.c **** int main(void)
  69:Core/Src/main.c **** {
  70:Core/Src/main.c **** 
  71:Core/Src/main.c ****   /* USER CODE BEGIN 1 */
  72:Core/Src/main.c ****   /* USER CODE END 1 */
  73:Core/Src/main.c **** 
  74:Core/Src/main.c ****   /* MCU Configuration--------------------------------------------------------*/
  75:Core/Src/main.c **** 
  76:Core/Src/main.c ****   /* Reset of all peripherals, Initializes the Flash interface and the Systick. */
  77:Core/Src/main.c ****   HAL_Init();
  78:Core/Src/main.c **** 
  79:Core/Src/main.c ****   /* USER CODE BEGIN Init */
  80:Core/Src/main.c ****   /* USER CODE END Init */
  81:Core/Src/main.c **** 
  82:Core/Src/main.c ****   /* Configure the system clock */
  83:Core/Src/main.c ****   SystemClock_Config();
  84:Core/Src/main.c **** 
  85:Core/Src/main.c ****   /* USER CODE BEGIN SysInit */
  86:Core/Src/main.c ****   /* USER CODE END SysInit */
  87:Core/Src/main.c **** 
  88:Core/Src/main.c ****   /* Initialize all configured peripherals */
  89:Core/Src/main.c ****   MX_GPIO_Init();
  90:Core/Src/main.c ****   MX_TIM16_Init();
ARM GAS  C:\Users\vuyani\AppData\Local\Temp\ccwdY4Wa.s 			page 3


  91:Core/Src/main.c ****   /* USER CODE BEGIN 2 */
  92:Core/Src/main.c **** 
  93:Core/Src/main.c ****   // TODO: Start timer TIM16
  94:Core/Src/main.c **** 
  95:Core/Src/main.c ****   /* USER CODE END 2 */
  96:Core/Src/main.c **** 
  97:Core/Src/main.c ****   /* Infinite loop */
  98:Core/Src/main.c ****   /* USER CODE BEGIN WHILE */
  99:Core/Src/main.c ****   while (1)
 100:Core/Src/main.c ****   {
 101:Core/Src/main.c ****     /* USER CODE END WHILE */
 102:Core/Src/main.c **** 
 103:Core/Src/main.c ****     /* USER CODE BEGIN 3 */
 104:Core/Src/main.c **** 
 105:Core/Src/main.c ****     // TODO: Check pushbuttons to change timer delay
 106:Core/Src/main.c ****     
 107:Core/Src/main.c ****     
 108:Core/Src/main.c **** 
 109:Core/Src/main.c ****   }
 110:Core/Src/main.c ****   /* USER CODE END 3 */
 111:Core/Src/main.c **** }
 112:Core/Src/main.c **** 
 113:Core/Src/main.c **** /**
 114:Core/Src/main.c ****   * @brief System Clock Configuration
 115:Core/Src/main.c ****   * @retval None
 116:Core/Src/main.c ****   */
 117:Core/Src/main.c **** void SystemClock_Config(void)
 118:Core/Src/main.c **** {
 119:Core/Src/main.c ****   LL_FLASH_SetLatency(LL_FLASH_LATENCY_0);
 120:Core/Src/main.c ****   while(LL_FLASH_GetLatency() != LL_FLASH_LATENCY_0)
 121:Core/Src/main.c ****   {
 122:Core/Src/main.c ****   }
 123:Core/Src/main.c ****   LL_RCC_HSI_Enable();
 124:Core/Src/main.c **** 
 125:Core/Src/main.c ****    /* Wait till HSI is ready */
 126:Core/Src/main.c ****   while(LL_RCC_HSI_IsReady() != 1)
 127:Core/Src/main.c ****   {
 128:Core/Src/main.c **** 
 129:Core/Src/main.c ****   }
 130:Core/Src/main.c ****   LL_RCC_HSI_SetCalibTrimming(16);
 131:Core/Src/main.c ****   LL_RCC_SetAHBPrescaler(LL_RCC_SYSCLK_DIV_1);
 132:Core/Src/main.c ****   LL_RCC_SetAPB1Prescaler(LL_RCC_APB1_DIV_1);
 133:Core/Src/main.c ****   LL_RCC_SetSysClkSource(LL_RCC_SYS_CLKSOURCE_HSI);
 134:Core/Src/main.c **** 
 135:Core/Src/main.c ****    /* Wait till System clock is ready */
 136:Core/Src/main.c ****   while(LL_RCC_GetSysClkSource() != LL_RCC_SYS_CLKSOURCE_STATUS_HSI)
 137:Core/Src/main.c ****   {
 138:Core/Src/main.c **** 
 139:Core/Src/main.c ****   }
 140:Core/Src/main.c ****   LL_SetSystemCoreClock(8000000);
 141:Core/Src/main.c **** 
 142:Core/Src/main.c ****    /* Update the time base */
 143:Core/Src/main.c ****   if (HAL_InitTick (TICK_INT_PRIORITY) != HAL_OK)
 144:Core/Src/main.c ****   {
 145:Core/Src/main.c ****     Error_Handler();
 146:Core/Src/main.c ****   }
 147:Core/Src/main.c **** }
ARM GAS  C:\Users\vuyani\AppData\Local\Temp\ccwdY4Wa.s 			page 4


 148:Core/Src/main.c **** 
 149:Core/Src/main.c **** /**
 150:Core/Src/main.c ****   * @brief TIM16 Initialization Function
 151:Core/Src/main.c ****   * @param None
 152:Core/Src/main.c ****   * @retval None
 153:Core/Src/main.c ****   */
 154:Core/Src/main.c **** static void MX_TIM16_Init(void)
 155:Core/Src/main.c **** {
 156:Core/Src/main.c **** 
 157:Core/Src/main.c ****   /* USER CODE BEGIN TIM16_Init 0 */
 158:Core/Src/main.c **** 
 159:Core/Src/main.c ****   /* USER CODE END TIM16_Init 0 */
 160:Core/Src/main.c **** 
 161:Core/Src/main.c ****   /* USER CODE BEGIN TIM16_Init 1 */
 162:Core/Src/main.c **** 
 163:Core/Src/main.c ****   /* USER CODE END TIM16_Init 1 */
 164:Core/Src/main.c ****   htim16.Instance = TIM16;
 165:Core/Src/main.c ****   htim16.Init.Prescaler = 8000-1;
 166:Core/Src/main.c ****   htim16.Init.CounterMode = TIM_COUNTERMODE_UP;
 167:Core/Src/main.c ****   htim16.Init.Period = 1000-1;
 168:Core/Src/main.c ****   htim16.Init.ClockDivision = TIM_CLOCKDIVISION_DIV1;
 169:Core/Src/main.c ****   htim16.Init.RepetitionCounter = 0;
 170:Core/Src/main.c ****   htim16.Init.AutoReloadPreload = TIM_AUTORELOAD_PRELOAD_ENABLE;
 171:Core/Src/main.c ****   if (HAL_TIM_Base_Init(&htim16) != HAL_OK)
 172:Core/Src/main.c ****   {
 173:Core/Src/main.c ****     Error_Handler();
 174:Core/Src/main.c ****   }
 175:Core/Src/main.c ****   /* USER CODE BEGIN TIM16_Init 2 */
 176:Core/Src/main.c ****   NVIC_EnableIRQ(TIM16_IRQn);
 177:Core/Src/main.c ****   /* USER CODE END TIM16_Init 2 */
 178:Core/Src/main.c **** 
 179:Core/Src/main.c **** }
 180:Core/Src/main.c **** 
 181:Core/Src/main.c **** /**
 182:Core/Src/main.c ****   * @brief GPIO Initialization Function
 183:Core/Src/main.c ****   * @param None
 184:Core/Src/main.c ****   * @retval None
 185:Core/Src/main.c ****   */
 186:Core/Src/main.c **** static void MX_GPIO_Init(void)
 187:Core/Src/main.c **** {
  26              		.loc 1 187 1 view -0
  27              		.cfi_startproc
  28              		@ args = 0, pretend = 0, frame = 40
  29              		@ frame_needed = 0, uses_anonymous_args = 0
  30 0000 F0B5     		push	{r4, r5, r6, r7, lr}
  31              	.LCFI0:
  32              		.cfi_def_cfa_offset 20
  33              		.cfi_offset 4, -20
  34              		.cfi_offset 5, -16
  35              		.cfi_offset 6, -12
  36              		.cfi_offset 7, -8
  37              		.cfi_offset 14, -4
  38 0002 DE46     		mov	lr, fp
  39 0004 5746     		mov	r7, r10
  40 0006 4E46     		mov	r6, r9
  41 0008 4546     		mov	r5, r8
  42 000a E0B5     		push	{r5, r6, r7, lr}
ARM GAS  C:\Users\vuyani\AppData\Local\Temp\ccwdY4Wa.s 			page 5


  43              	.LCFI1:
  44              		.cfi_def_cfa_offset 36
  45              		.cfi_offset 8, -36
  46              		.cfi_offset 9, -32
  47              		.cfi_offset 10, -28
  48              		.cfi_offset 11, -24
  49 000c 8BB0     		sub	sp, sp, #44
  50              	.LCFI2:
  51              		.cfi_def_cfa_offset 80
 188:Core/Src/main.c ****   LL_GPIO_InitTypeDef GPIO_InitStruct = {0};
  52              		.loc 1 188 3 view .LVU1
  53              		.loc 1 188 23 is_stmt 0 view .LVU2
  54 000e 1822     		movs	r2, #24
  55 0010 0021     		movs	r1, #0
  56 0012 04A8     		add	r0, sp, #16
  57 0014 FFF7FEFF 		bl	memset
  58              	.LVL0:
 189:Core/Src/main.c **** /* USER CODE BEGIN MX_GPIO_Init_1 */
 190:Core/Src/main.c **** /* USER CODE END MX_GPIO_Init_1 */
 191:Core/Src/main.c **** 
 192:Core/Src/main.c ****   /* GPIO Ports Clock Enable */
 193:Core/Src/main.c ****   LL_AHB1_GRP1_EnableClock(LL_AHB1_GRP1_PERIPH_GPIOF);
  59              		.loc 1 193 3 is_stmt 1 view .LVU3
  60              	.LBB46:
  61              	.LBI46:
  62              		.file 2 "Drivers/STM32F0xx_HAL_Driver/Inc/stm32f0xx_ll_bus.h"
   1:Drivers/STM32F0xx_HAL_Driver/Inc/stm32f0xx_ll_bus.h **** /**
   2:Drivers/STM32F0xx_HAL_Driver/Inc/stm32f0xx_ll_bus.h ****   ******************************************************************************
   3:Drivers/STM32F0xx_HAL_Driver/Inc/stm32f0xx_ll_bus.h ****   * @file    stm32f0xx_ll_bus.h
   4:Drivers/STM32F0xx_HAL_Driver/Inc/stm32f0xx_ll_bus.h ****   * @author  MCD Application Team
   5:Drivers/STM32F0xx_HAL_Driver/Inc/stm32f0xx_ll_bus.h ****   * @brief   Header file of BUS LL module.
   6:Drivers/STM32F0xx_HAL_Driver/Inc/stm32f0xx_ll_bus.h **** 
   7:Drivers/STM32F0xx_HAL_Driver/Inc/stm32f0xx_ll_bus.h ****   @verbatim                
   8:Drivers/STM32F0xx_HAL_Driver/Inc/stm32f0xx_ll_bus.h ****                       ##### RCC Limitations #####
   9:Drivers/STM32F0xx_HAL_Driver/Inc/stm32f0xx_ll_bus.h ****   ==============================================================================
  10:Drivers/STM32F0xx_HAL_Driver/Inc/stm32f0xx_ll_bus.h ****     [..]  
  11:Drivers/STM32F0xx_HAL_Driver/Inc/stm32f0xx_ll_bus.h ****       A delay between an RCC peripheral clock enable and the effective peripheral 
  12:Drivers/STM32F0xx_HAL_Driver/Inc/stm32f0xx_ll_bus.h ****       enabling should be taken into account in order to manage the peripheral read/write 
  13:Drivers/STM32F0xx_HAL_Driver/Inc/stm32f0xx_ll_bus.h ****       from/to registers.
  14:Drivers/STM32F0xx_HAL_Driver/Inc/stm32f0xx_ll_bus.h ****       (+) This delay depends on the peripheral mapping.
  15:Drivers/STM32F0xx_HAL_Driver/Inc/stm32f0xx_ll_bus.h ****         (++) AHB & APB peripherals, 1 dummy read is necessary
  16:Drivers/STM32F0xx_HAL_Driver/Inc/stm32f0xx_ll_bus.h **** 
  17:Drivers/STM32F0xx_HAL_Driver/Inc/stm32f0xx_ll_bus.h ****     [..]  
  18:Drivers/STM32F0xx_HAL_Driver/Inc/stm32f0xx_ll_bus.h ****       Workarounds:
  19:Drivers/STM32F0xx_HAL_Driver/Inc/stm32f0xx_ll_bus.h ****       (#) For AHB & APB peripherals, a dummy read to the peripheral register has been
  20:Drivers/STM32F0xx_HAL_Driver/Inc/stm32f0xx_ll_bus.h ****           inserted in each LL_{BUS}_GRP{x}_EnableClock() function.
  21:Drivers/STM32F0xx_HAL_Driver/Inc/stm32f0xx_ll_bus.h **** 
  22:Drivers/STM32F0xx_HAL_Driver/Inc/stm32f0xx_ll_bus.h ****   @endverbatim
  23:Drivers/STM32F0xx_HAL_Driver/Inc/stm32f0xx_ll_bus.h ****   ******************************************************************************
  24:Drivers/STM32F0xx_HAL_Driver/Inc/stm32f0xx_ll_bus.h ****   * @attention
  25:Drivers/STM32F0xx_HAL_Driver/Inc/stm32f0xx_ll_bus.h ****   *
  26:Drivers/STM32F0xx_HAL_Driver/Inc/stm32f0xx_ll_bus.h ****   * Copyright (c) 2016 STMicroelectronics.
  27:Drivers/STM32F0xx_HAL_Driver/Inc/stm32f0xx_ll_bus.h ****   * All rights reserved.
  28:Drivers/STM32F0xx_HAL_Driver/Inc/stm32f0xx_ll_bus.h ****   *
  29:Drivers/STM32F0xx_HAL_Driver/Inc/stm32f0xx_ll_bus.h ****   * This software is licensed under terms that can be found in the LICENSE file in
  30:Drivers/STM32F0xx_HAL_Driver/Inc/stm32f0xx_ll_bus.h ****   * the root directory of this software component.
  31:Drivers/STM32F0xx_HAL_Driver/Inc/stm32f0xx_ll_bus.h ****   * If no LICENSE file comes with this software, it is provided AS-IS.
ARM GAS  C:\Users\vuyani\AppData\Local\Temp\ccwdY4Wa.s 			page 6


  32:Drivers/STM32F0xx_HAL_Driver/Inc/stm32f0xx_ll_bus.h ****   ******************************************************************************
  33:Drivers/STM32F0xx_HAL_Driver/Inc/stm32f0xx_ll_bus.h ****   */
  34:Drivers/STM32F0xx_HAL_Driver/Inc/stm32f0xx_ll_bus.h **** 
  35:Drivers/STM32F0xx_HAL_Driver/Inc/stm32f0xx_ll_bus.h **** /* Define to prevent recursive inclusion -------------------------------------*/
  36:Drivers/STM32F0xx_HAL_Driver/Inc/stm32f0xx_ll_bus.h **** #ifndef __STM32F0xx_LL_BUS_H
  37:Drivers/STM32F0xx_HAL_Driver/Inc/stm32f0xx_ll_bus.h **** #define __STM32F0xx_LL_BUS_H
  38:Drivers/STM32F0xx_HAL_Driver/Inc/stm32f0xx_ll_bus.h **** 
  39:Drivers/STM32F0xx_HAL_Driver/Inc/stm32f0xx_ll_bus.h **** #ifdef __cplusplus
  40:Drivers/STM32F0xx_HAL_Driver/Inc/stm32f0xx_ll_bus.h **** extern "C" {
  41:Drivers/STM32F0xx_HAL_Driver/Inc/stm32f0xx_ll_bus.h **** #endif
  42:Drivers/STM32F0xx_HAL_Driver/Inc/stm32f0xx_ll_bus.h **** 
  43:Drivers/STM32F0xx_HAL_Driver/Inc/stm32f0xx_ll_bus.h **** /* Includes ------------------------------------------------------------------*/
  44:Drivers/STM32F0xx_HAL_Driver/Inc/stm32f0xx_ll_bus.h **** #include "stm32f0xx.h"
  45:Drivers/STM32F0xx_HAL_Driver/Inc/stm32f0xx_ll_bus.h **** 
  46:Drivers/STM32F0xx_HAL_Driver/Inc/stm32f0xx_ll_bus.h **** /** @addtogroup STM32F0xx_LL_Driver
  47:Drivers/STM32F0xx_HAL_Driver/Inc/stm32f0xx_ll_bus.h ****   * @{
  48:Drivers/STM32F0xx_HAL_Driver/Inc/stm32f0xx_ll_bus.h ****   */
  49:Drivers/STM32F0xx_HAL_Driver/Inc/stm32f0xx_ll_bus.h **** 
  50:Drivers/STM32F0xx_HAL_Driver/Inc/stm32f0xx_ll_bus.h **** #if defined(RCC)
  51:Drivers/STM32F0xx_HAL_Driver/Inc/stm32f0xx_ll_bus.h **** 
  52:Drivers/STM32F0xx_HAL_Driver/Inc/stm32f0xx_ll_bus.h **** /** @defgroup BUS_LL BUS
  53:Drivers/STM32F0xx_HAL_Driver/Inc/stm32f0xx_ll_bus.h ****   * @{
  54:Drivers/STM32F0xx_HAL_Driver/Inc/stm32f0xx_ll_bus.h ****   */
  55:Drivers/STM32F0xx_HAL_Driver/Inc/stm32f0xx_ll_bus.h **** 
  56:Drivers/STM32F0xx_HAL_Driver/Inc/stm32f0xx_ll_bus.h **** /* Private types -------------------------------------------------------------*/
  57:Drivers/STM32F0xx_HAL_Driver/Inc/stm32f0xx_ll_bus.h **** /* Private variables ---------------------------------------------------------*/
  58:Drivers/STM32F0xx_HAL_Driver/Inc/stm32f0xx_ll_bus.h **** 
  59:Drivers/STM32F0xx_HAL_Driver/Inc/stm32f0xx_ll_bus.h **** /* Private constants ---------------------------------------------------------*/
  60:Drivers/STM32F0xx_HAL_Driver/Inc/stm32f0xx_ll_bus.h **** 
  61:Drivers/STM32F0xx_HAL_Driver/Inc/stm32f0xx_ll_bus.h **** /* Private macros ------------------------------------------------------------*/
  62:Drivers/STM32F0xx_HAL_Driver/Inc/stm32f0xx_ll_bus.h **** 
  63:Drivers/STM32F0xx_HAL_Driver/Inc/stm32f0xx_ll_bus.h **** /* Exported types ------------------------------------------------------------*/
  64:Drivers/STM32F0xx_HAL_Driver/Inc/stm32f0xx_ll_bus.h **** /* Exported constants --------------------------------------------------------*/
  65:Drivers/STM32F0xx_HAL_Driver/Inc/stm32f0xx_ll_bus.h **** /** @defgroup BUS_LL_Exported_Constants BUS Exported Constants
  66:Drivers/STM32F0xx_HAL_Driver/Inc/stm32f0xx_ll_bus.h ****   * @{
  67:Drivers/STM32F0xx_HAL_Driver/Inc/stm32f0xx_ll_bus.h ****   */
  68:Drivers/STM32F0xx_HAL_Driver/Inc/stm32f0xx_ll_bus.h **** 
  69:Drivers/STM32F0xx_HAL_Driver/Inc/stm32f0xx_ll_bus.h **** /** @defgroup BUS_LL_EC_AHB1_GRP1_PERIPH  AHB1 GRP1 PERIPH
  70:Drivers/STM32F0xx_HAL_Driver/Inc/stm32f0xx_ll_bus.h ****   * @{
  71:Drivers/STM32F0xx_HAL_Driver/Inc/stm32f0xx_ll_bus.h ****   */
  72:Drivers/STM32F0xx_HAL_Driver/Inc/stm32f0xx_ll_bus.h **** #define LL_AHB1_GRP1_PERIPH_ALL            (uint32_t)0xFFFFFFFFU
  73:Drivers/STM32F0xx_HAL_Driver/Inc/stm32f0xx_ll_bus.h **** #define LL_AHB1_GRP1_PERIPH_DMA1           RCC_AHBENR_DMA1EN
  74:Drivers/STM32F0xx_HAL_Driver/Inc/stm32f0xx_ll_bus.h **** #if defined(DMA2)
  75:Drivers/STM32F0xx_HAL_Driver/Inc/stm32f0xx_ll_bus.h **** #define LL_AHB1_GRP1_PERIPH_DMA2           RCC_AHBENR_DMA2EN
  76:Drivers/STM32F0xx_HAL_Driver/Inc/stm32f0xx_ll_bus.h **** #endif /*DMA2*/
  77:Drivers/STM32F0xx_HAL_Driver/Inc/stm32f0xx_ll_bus.h **** #define LL_AHB1_GRP1_PERIPH_SRAM           RCC_AHBENR_SRAMEN
  78:Drivers/STM32F0xx_HAL_Driver/Inc/stm32f0xx_ll_bus.h **** #define LL_AHB1_GRP1_PERIPH_FLASH          RCC_AHBENR_FLITFEN
  79:Drivers/STM32F0xx_HAL_Driver/Inc/stm32f0xx_ll_bus.h **** #define LL_AHB1_GRP1_PERIPH_CRC            RCC_AHBENR_CRCEN
  80:Drivers/STM32F0xx_HAL_Driver/Inc/stm32f0xx_ll_bus.h **** #define LL_AHB1_GRP1_PERIPH_GPIOA          RCC_AHBENR_GPIOAEN
  81:Drivers/STM32F0xx_HAL_Driver/Inc/stm32f0xx_ll_bus.h **** #define LL_AHB1_GRP1_PERIPH_GPIOB          RCC_AHBENR_GPIOBEN
  82:Drivers/STM32F0xx_HAL_Driver/Inc/stm32f0xx_ll_bus.h **** #define LL_AHB1_GRP1_PERIPH_GPIOC          RCC_AHBENR_GPIOCEN
  83:Drivers/STM32F0xx_HAL_Driver/Inc/stm32f0xx_ll_bus.h **** #if defined(GPIOD)
  84:Drivers/STM32F0xx_HAL_Driver/Inc/stm32f0xx_ll_bus.h **** #define LL_AHB1_GRP1_PERIPH_GPIOD          RCC_AHBENR_GPIODEN
  85:Drivers/STM32F0xx_HAL_Driver/Inc/stm32f0xx_ll_bus.h **** #endif /*GPIOD*/
  86:Drivers/STM32F0xx_HAL_Driver/Inc/stm32f0xx_ll_bus.h **** #if defined(GPIOE)
  87:Drivers/STM32F0xx_HAL_Driver/Inc/stm32f0xx_ll_bus.h **** #define LL_AHB1_GRP1_PERIPH_GPIOE          RCC_AHBENR_GPIOEEN
  88:Drivers/STM32F0xx_HAL_Driver/Inc/stm32f0xx_ll_bus.h **** #endif /*GPIOE*/
ARM GAS  C:\Users\vuyani\AppData\Local\Temp\ccwdY4Wa.s 			page 7


  89:Drivers/STM32F0xx_HAL_Driver/Inc/stm32f0xx_ll_bus.h **** #define LL_AHB1_GRP1_PERIPH_GPIOF          RCC_AHBENR_GPIOFEN
  90:Drivers/STM32F0xx_HAL_Driver/Inc/stm32f0xx_ll_bus.h **** #if defined(TSC)
  91:Drivers/STM32F0xx_HAL_Driver/Inc/stm32f0xx_ll_bus.h **** #define LL_AHB1_GRP1_PERIPH_TSC            RCC_AHBENR_TSCEN
  92:Drivers/STM32F0xx_HAL_Driver/Inc/stm32f0xx_ll_bus.h **** #endif /*TSC*/
  93:Drivers/STM32F0xx_HAL_Driver/Inc/stm32f0xx_ll_bus.h **** /**
  94:Drivers/STM32F0xx_HAL_Driver/Inc/stm32f0xx_ll_bus.h ****   * @}
  95:Drivers/STM32F0xx_HAL_Driver/Inc/stm32f0xx_ll_bus.h ****   */
  96:Drivers/STM32F0xx_HAL_Driver/Inc/stm32f0xx_ll_bus.h **** 
  97:Drivers/STM32F0xx_HAL_Driver/Inc/stm32f0xx_ll_bus.h **** /** @defgroup BUS_LL_EC_APB1_GRP1_PERIPH  APB1 GRP1 PERIPH
  98:Drivers/STM32F0xx_HAL_Driver/Inc/stm32f0xx_ll_bus.h ****   * @{
  99:Drivers/STM32F0xx_HAL_Driver/Inc/stm32f0xx_ll_bus.h ****   */
 100:Drivers/STM32F0xx_HAL_Driver/Inc/stm32f0xx_ll_bus.h **** #define LL_APB1_GRP1_PERIPH_ALL            (uint32_t)0xFFFFFFFFU
 101:Drivers/STM32F0xx_HAL_Driver/Inc/stm32f0xx_ll_bus.h **** #if defined(TIM2)
 102:Drivers/STM32F0xx_HAL_Driver/Inc/stm32f0xx_ll_bus.h **** #define LL_APB1_GRP1_PERIPH_TIM2           RCC_APB1ENR_TIM2EN
 103:Drivers/STM32F0xx_HAL_Driver/Inc/stm32f0xx_ll_bus.h **** #endif /*TIM2*/
 104:Drivers/STM32F0xx_HAL_Driver/Inc/stm32f0xx_ll_bus.h **** #define LL_APB1_GRP1_PERIPH_TIM3           RCC_APB1ENR_TIM3EN
 105:Drivers/STM32F0xx_HAL_Driver/Inc/stm32f0xx_ll_bus.h **** #if defined(TIM6)
 106:Drivers/STM32F0xx_HAL_Driver/Inc/stm32f0xx_ll_bus.h **** #define LL_APB1_GRP1_PERIPH_TIM6           RCC_APB1ENR_TIM6EN
 107:Drivers/STM32F0xx_HAL_Driver/Inc/stm32f0xx_ll_bus.h **** #endif /*TIM6*/
 108:Drivers/STM32F0xx_HAL_Driver/Inc/stm32f0xx_ll_bus.h **** #if defined(TIM7)
 109:Drivers/STM32F0xx_HAL_Driver/Inc/stm32f0xx_ll_bus.h **** #define LL_APB1_GRP1_PERIPH_TIM7           RCC_APB1ENR_TIM7EN
 110:Drivers/STM32F0xx_HAL_Driver/Inc/stm32f0xx_ll_bus.h **** #endif /*TIM7*/
 111:Drivers/STM32F0xx_HAL_Driver/Inc/stm32f0xx_ll_bus.h **** #define LL_APB1_GRP1_PERIPH_TIM14          RCC_APB1ENR_TIM14EN
 112:Drivers/STM32F0xx_HAL_Driver/Inc/stm32f0xx_ll_bus.h **** #define LL_APB1_GRP1_PERIPH_WWDG           RCC_APB1ENR_WWDGEN
 113:Drivers/STM32F0xx_HAL_Driver/Inc/stm32f0xx_ll_bus.h **** #if defined(SPI2)
 114:Drivers/STM32F0xx_HAL_Driver/Inc/stm32f0xx_ll_bus.h **** #define LL_APB1_GRP1_PERIPH_SPI2           RCC_APB1ENR_SPI2EN
 115:Drivers/STM32F0xx_HAL_Driver/Inc/stm32f0xx_ll_bus.h **** #endif /*SPI2*/
 116:Drivers/STM32F0xx_HAL_Driver/Inc/stm32f0xx_ll_bus.h **** #if defined(USART2)
 117:Drivers/STM32F0xx_HAL_Driver/Inc/stm32f0xx_ll_bus.h **** #define LL_APB1_GRP1_PERIPH_USART2         RCC_APB1ENR_USART2EN
 118:Drivers/STM32F0xx_HAL_Driver/Inc/stm32f0xx_ll_bus.h **** #endif /* USART2 */
 119:Drivers/STM32F0xx_HAL_Driver/Inc/stm32f0xx_ll_bus.h **** #if defined(USART3)
 120:Drivers/STM32F0xx_HAL_Driver/Inc/stm32f0xx_ll_bus.h **** #define LL_APB1_GRP1_PERIPH_USART3         RCC_APB1ENR_USART3EN
 121:Drivers/STM32F0xx_HAL_Driver/Inc/stm32f0xx_ll_bus.h **** #endif /* USART3 */
 122:Drivers/STM32F0xx_HAL_Driver/Inc/stm32f0xx_ll_bus.h **** #if defined(USART4)
 123:Drivers/STM32F0xx_HAL_Driver/Inc/stm32f0xx_ll_bus.h **** #define LL_APB1_GRP1_PERIPH_USART4         RCC_APB1ENR_USART4EN
 124:Drivers/STM32F0xx_HAL_Driver/Inc/stm32f0xx_ll_bus.h **** #endif /* USART4 */
 125:Drivers/STM32F0xx_HAL_Driver/Inc/stm32f0xx_ll_bus.h **** #if defined(USART5)
 126:Drivers/STM32F0xx_HAL_Driver/Inc/stm32f0xx_ll_bus.h **** #define LL_APB1_GRP1_PERIPH_USART5         RCC_APB1ENR_USART5EN
 127:Drivers/STM32F0xx_HAL_Driver/Inc/stm32f0xx_ll_bus.h **** #endif /* USART5 */
 128:Drivers/STM32F0xx_HAL_Driver/Inc/stm32f0xx_ll_bus.h **** #define LL_APB1_GRP1_PERIPH_I2C1           RCC_APB1ENR_I2C1EN
 129:Drivers/STM32F0xx_HAL_Driver/Inc/stm32f0xx_ll_bus.h **** #if defined(I2C2)
 130:Drivers/STM32F0xx_HAL_Driver/Inc/stm32f0xx_ll_bus.h **** #define LL_APB1_GRP1_PERIPH_I2C2           RCC_APB1ENR_I2C2EN
 131:Drivers/STM32F0xx_HAL_Driver/Inc/stm32f0xx_ll_bus.h **** #endif /*I2C2*/
 132:Drivers/STM32F0xx_HAL_Driver/Inc/stm32f0xx_ll_bus.h **** #if defined(USB)
 133:Drivers/STM32F0xx_HAL_Driver/Inc/stm32f0xx_ll_bus.h **** #define LL_APB1_GRP1_PERIPH_USB            RCC_APB1ENR_USBEN
 134:Drivers/STM32F0xx_HAL_Driver/Inc/stm32f0xx_ll_bus.h **** #endif /* USB */
 135:Drivers/STM32F0xx_HAL_Driver/Inc/stm32f0xx_ll_bus.h **** #if defined(CAN)
 136:Drivers/STM32F0xx_HAL_Driver/Inc/stm32f0xx_ll_bus.h **** #define LL_APB1_GRP1_PERIPH_CAN            RCC_APB1ENR_CANEN
 137:Drivers/STM32F0xx_HAL_Driver/Inc/stm32f0xx_ll_bus.h **** #endif /*CAN*/
 138:Drivers/STM32F0xx_HAL_Driver/Inc/stm32f0xx_ll_bus.h **** #if defined(CRS)
 139:Drivers/STM32F0xx_HAL_Driver/Inc/stm32f0xx_ll_bus.h **** #define LL_APB1_GRP1_PERIPH_CRS            RCC_APB1ENR_CRSEN
 140:Drivers/STM32F0xx_HAL_Driver/Inc/stm32f0xx_ll_bus.h **** #endif /*CRS*/
 141:Drivers/STM32F0xx_HAL_Driver/Inc/stm32f0xx_ll_bus.h **** #define LL_APB1_GRP1_PERIPH_PWR            RCC_APB1ENR_PWREN
 142:Drivers/STM32F0xx_HAL_Driver/Inc/stm32f0xx_ll_bus.h **** #if defined(DAC)
 143:Drivers/STM32F0xx_HAL_Driver/Inc/stm32f0xx_ll_bus.h **** #define LL_APB1_GRP1_PERIPH_DAC1           RCC_APB1ENR_DACEN
 144:Drivers/STM32F0xx_HAL_Driver/Inc/stm32f0xx_ll_bus.h **** #endif /*DAC*/
 145:Drivers/STM32F0xx_HAL_Driver/Inc/stm32f0xx_ll_bus.h **** #if defined(CEC)
ARM GAS  C:\Users\vuyani\AppData\Local\Temp\ccwdY4Wa.s 			page 8


 146:Drivers/STM32F0xx_HAL_Driver/Inc/stm32f0xx_ll_bus.h **** #define LL_APB1_GRP1_PERIPH_CEC            RCC_APB1ENR_CECEN
 147:Drivers/STM32F0xx_HAL_Driver/Inc/stm32f0xx_ll_bus.h **** #endif /*CEC*/
 148:Drivers/STM32F0xx_HAL_Driver/Inc/stm32f0xx_ll_bus.h **** /**
 149:Drivers/STM32F0xx_HAL_Driver/Inc/stm32f0xx_ll_bus.h ****   * @}
 150:Drivers/STM32F0xx_HAL_Driver/Inc/stm32f0xx_ll_bus.h ****   */
 151:Drivers/STM32F0xx_HAL_Driver/Inc/stm32f0xx_ll_bus.h **** 
 152:Drivers/STM32F0xx_HAL_Driver/Inc/stm32f0xx_ll_bus.h **** /** @defgroup BUS_LL_EC_APB1_GRP2_PERIPH  APB1 GRP2 PERIPH
 153:Drivers/STM32F0xx_HAL_Driver/Inc/stm32f0xx_ll_bus.h ****   * @{
 154:Drivers/STM32F0xx_HAL_Driver/Inc/stm32f0xx_ll_bus.h ****   */
 155:Drivers/STM32F0xx_HAL_Driver/Inc/stm32f0xx_ll_bus.h **** #define LL_APB1_GRP2_PERIPH_ALL            (uint32_t)0xFFFFFFFFU
 156:Drivers/STM32F0xx_HAL_Driver/Inc/stm32f0xx_ll_bus.h **** #define LL_APB1_GRP2_PERIPH_SYSCFG         RCC_APB2ENR_SYSCFGEN
 157:Drivers/STM32F0xx_HAL_Driver/Inc/stm32f0xx_ll_bus.h **** #define LL_APB1_GRP2_PERIPH_ADC1           RCC_APB2ENR_ADC1EN
 158:Drivers/STM32F0xx_HAL_Driver/Inc/stm32f0xx_ll_bus.h **** #if defined(USART8)
 159:Drivers/STM32F0xx_HAL_Driver/Inc/stm32f0xx_ll_bus.h **** #define LL_APB1_GRP2_PERIPH_USART8         RCC_APB2ENR_USART8EN
 160:Drivers/STM32F0xx_HAL_Driver/Inc/stm32f0xx_ll_bus.h **** #endif /*USART8*/
 161:Drivers/STM32F0xx_HAL_Driver/Inc/stm32f0xx_ll_bus.h **** #if defined(USART7)
 162:Drivers/STM32F0xx_HAL_Driver/Inc/stm32f0xx_ll_bus.h **** #define LL_APB1_GRP2_PERIPH_USART7         RCC_APB2ENR_USART7EN
 163:Drivers/STM32F0xx_HAL_Driver/Inc/stm32f0xx_ll_bus.h **** #endif /*USART7*/
 164:Drivers/STM32F0xx_HAL_Driver/Inc/stm32f0xx_ll_bus.h **** #if defined(USART6)
 165:Drivers/STM32F0xx_HAL_Driver/Inc/stm32f0xx_ll_bus.h **** #define LL_APB1_GRP2_PERIPH_USART6         RCC_APB2ENR_USART6EN
 166:Drivers/STM32F0xx_HAL_Driver/Inc/stm32f0xx_ll_bus.h **** #endif /*USART6*/
 167:Drivers/STM32F0xx_HAL_Driver/Inc/stm32f0xx_ll_bus.h **** #define LL_APB1_GRP2_PERIPH_TIM1           RCC_APB2ENR_TIM1EN
 168:Drivers/STM32F0xx_HAL_Driver/Inc/stm32f0xx_ll_bus.h **** #define LL_APB1_GRP2_PERIPH_SPI1           RCC_APB2ENR_SPI1EN
 169:Drivers/STM32F0xx_HAL_Driver/Inc/stm32f0xx_ll_bus.h **** #define LL_APB1_GRP2_PERIPH_USART1         RCC_APB2ENR_USART1EN
 170:Drivers/STM32F0xx_HAL_Driver/Inc/stm32f0xx_ll_bus.h **** #if defined(TIM15)
 171:Drivers/STM32F0xx_HAL_Driver/Inc/stm32f0xx_ll_bus.h **** #define LL_APB1_GRP2_PERIPH_TIM15          RCC_APB2ENR_TIM15EN
 172:Drivers/STM32F0xx_HAL_Driver/Inc/stm32f0xx_ll_bus.h **** #endif /*TIM15*/
 173:Drivers/STM32F0xx_HAL_Driver/Inc/stm32f0xx_ll_bus.h **** #define LL_APB1_GRP2_PERIPH_TIM16          RCC_APB2ENR_TIM16EN
 174:Drivers/STM32F0xx_HAL_Driver/Inc/stm32f0xx_ll_bus.h **** #define LL_APB1_GRP2_PERIPH_TIM17          RCC_APB2ENR_TIM17EN
 175:Drivers/STM32F0xx_HAL_Driver/Inc/stm32f0xx_ll_bus.h **** #define LL_APB1_GRP2_PERIPH_DBGMCU         RCC_APB2ENR_DBGMCUEN
 176:Drivers/STM32F0xx_HAL_Driver/Inc/stm32f0xx_ll_bus.h **** /**
 177:Drivers/STM32F0xx_HAL_Driver/Inc/stm32f0xx_ll_bus.h ****   * @}
 178:Drivers/STM32F0xx_HAL_Driver/Inc/stm32f0xx_ll_bus.h ****   */
 179:Drivers/STM32F0xx_HAL_Driver/Inc/stm32f0xx_ll_bus.h **** 
 180:Drivers/STM32F0xx_HAL_Driver/Inc/stm32f0xx_ll_bus.h **** /**
 181:Drivers/STM32F0xx_HAL_Driver/Inc/stm32f0xx_ll_bus.h ****   * @}
 182:Drivers/STM32F0xx_HAL_Driver/Inc/stm32f0xx_ll_bus.h ****   */
 183:Drivers/STM32F0xx_HAL_Driver/Inc/stm32f0xx_ll_bus.h **** 
 184:Drivers/STM32F0xx_HAL_Driver/Inc/stm32f0xx_ll_bus.h **** /* Exported macro ------------------------------------------------------------*/
 185:Drivers/STM32F0xx_HAL_Driver/Inc/stm32f0xx_ll_bus.h **** /* Exported functions --------------------------------------------------------*/
 186:Drivers/STM32F0xx_HAL_Driver/Inc/stm32f0xx_ll_bus.h **** /** @defgroup BUS_LL_Exported_Functions BUS Exported Functions
 187:Drivers/STM32F0xx_HAL_Driver/Inc/stm32f0xx_ll_bus.h ****   * @{
 188:Drivers/STM32F0xx_HAL_Driver/Inc/stm32f0xx_ll_bus.h ****   */
 189:Drivers/STM32F0xx_HAL_Driver/Inc/stm32f0xx_ll_bus.h **** 
 190:Drivers/STM32F0xx_HAL_Driver/Inc/stm32f0xx_ll_bus.h **** /** @defgroup BUS_LL_EF_AHB1 AHB1
 191:Drivers/STM32F0xx_HAL_Driver/Inc/stm32f0xx_ll_bus.h ****   * @{
 192:Drivers/STM32F0xx_HAL_Driver/Inc/stm32f0xx_ll_bus.h ****   */
 193:Drivers/STM32F0xx_HAL_Driver/Inc/stm32f0xx_ll_bus.h **** 
 194:Drivers/STM32F0xx_HAL_Driver/Inc/stm32f0xx_ll_bus.h **** /**
 195:Drivers/STM32F0xx_HAL_Driver/Inc/stm32f0xx_ll_bus.h ****   * @brief  Enable AHB1 peripherals clock.
 196:Drivers/STM32F0xx_HAL_Driver/Inc/stm32f0xx_ll_bus.h ****   * @rmtoll AHBENR       DMA1EN        LL_AHB1_GRP1_EnableClock\n
 197:Drivers/STM32F0xx_HAL_Driver/Inc/stm32f0xx_ll_bus.h ****   *         AHBENR       DMA2EN        LL_AHB1_GRP1_EnableClock\n
 198:Drivers/STM32F0xx_HAL_Driver/Inc/stm32f0xx_ll_bus.h ****   *         AHBENR       SRAMEN        LL_AHB1_GRP1_EnableClock\n
 199:Drivers/STM32F0xx_HAL_Driver/Inc/stm32f0xx_ll_bus.h ****   *         AHBENR       FLITFEN       LL_AHB1_GRP1_EnableClock\n
 200:Drivers/STM32F0xx_HAL_Driver/Inc/stm32f0xx_ll_bus.h ****   *         AHBENR       CRCEN         LL_AHB1_GRP1_EnableClock\n
 201:Drivers/STM32F0xx_HAL_Driver/Inc/stm32f0xx_ll_bus.h ****   *         AHBENR       GPIOAEN       LL_AHB1_GRP1_EnableClock\n
 202:Drivers/STM32F0xx_HAL_Driver/Inc/stm32f0xx_ll_bus.h ****   *         AHBENR       GPIOBEN       LL_AHB1_GRP1_EnableClock\n
ARM GAS  C:\Users\vuyani\AppData\Local\Temp\ccwdY4Wa.s 			page 9


 203:Drivers/STM32F0xx_HAL_Driver/Inc/stm32f0xx_ll_bus.h ****   *         AHBENR       GPIOCEN       LL_AHB1_GRP1_EnableClock\n
 204:Drivers/STM32F0xx_HAL_Driver/Inc/stm32f0xx_ll_bus.h ****   *         AHBENR       GPIODEN       LL_AHB1_GRP1_EnableClock\n
 205:Drivers/STM32F0xx_HAL_Driver/Inc/stm32f0xx_ll_bus.h ****   *         AHBENR       GPIOEEN       LL_AHB1_GRP1_EnableClock\n
 206:Drivers/STM32F0xx_HAL_Driver/Inc/stm32f0xx_ll_bus.h ****   *         AHBENR       GPIOFEN       LL_AHB1_GRP1_EnableClock\n
 207:Drivers/STM32F0xx_HAL_Driver/Inc/stm32f0xx_ll_bus.h ****   *         AHBENR       TSCEN         LL_AHB1_GRP1_EnableClock
 208:Drivers/STM32F0xx_HAL_Driver/Inc/stm32f0xx_ll_bus.h ****   * @param  Periphs This parameter can be a combination of the following values:
 209:Drivers/STM32F0xx_HAL_Driver/Inc/stm32f0xx_ll_bus.h ****   *         @arg @ref LL_AHB1_GRP1_PERIPH_DMA1
 210:Drivers/STM32F0xx_HAL_Driver/Inc/stm32f0xx_ll_bus.h ****   *         @arg @ref LL_AHB1_GRP1_PERIPH_DMA2 (*)
 211:Drivers/STM32F0xx_HAL_Driver/Inc/stm32f0xx_ll_bus.h ****   *         @arg @ref LL_AHB1_GRP1_PERIPH_SRAM
 212:Drivers/STM32F0xx_HAL_Driver/Inc/stm32f0xx_ll_bus.h ****   *         @arg @ref LL_AHB1_GRP1_PERIPH_FLASH
 213:Drivers/STM32F0xx_HAL_Driver/Inc/stm32f0xx_ll_bus.h ****   *         @arg @ref LL_AHB1_GRP1_PERIPH_CRC
 214:Drivers/STM32F0xx_HAL_Driver/Inc/stm32f0xx_ll_bus.h ****   *         @arg @ref LL_AHB1_GRP1_PERIPH_GPIOA
 215:Drivers/STM32F0xx_HAL_Driver/Inc/stm32f0xx_ll_bus.h ****   *         @arg @ref LL_AHB1_GRP1_PERIPH_GPIOB
 216:Drivers/STM32F0xx_HAL_Driver/Inc/stm32f0xx_ll_bus.h ****   *         @arg @ref LL_AHB1_GRP1_PERIPH_GPIOC
 217:Drivers/STM32F0xx_HAL_Driver/Inc/stm32f0xx_ll_bus.h ****   *         @arg @ref LL_AHB1_GRP1_PERIPH_GPIOD (*)
 218:Drivers/STM32F0xx_HAL_Driver/Inc/stm32f0xx_ll_bus.h ****   *         @arg @ref LL_AHB1_GRP1_PERIPH_GPIOE (*)
 219:Drivers/STM32F0xx_HAL_Driver/Inc/stm32f0xx_ll_bus.h ****   *         @arg @ref LL_AHB1_GRP1_PERIPH_GPIOF
 220:Drivers/STM32F0xx_HAL_Driver/Inc/stm32f0xx_ll_bus.h ****   *         @arg @ref LL_AHB1_GRP1_PERIPH_TSC (*)
 221:Drivers/STM32F0xx_HAL_Driver/Inc/stm32f0xx_ll_bus.h ****   *
 222:Drivers/STM32F0xx_HAL_Driver/Inc/stm32f0xx_ll_bus.h ****   *         (*) value not defined in all devices.
 223:Drivers/STM32F0xx_HAL_Driver/Inc/stm32f0xx_ll_bus.h ****   * @retval None
 224:Drivers/STM32F0xx_HAL_Driver/Inc/stm32f0xx_ll_bus.h **** */
 225:Drivers/STM32F0xx_HAL_Driver/Inc/stm32f0xx_ll_bus.h **** __STATIC_INLINE void LL_AHB1_GRP1_EnableClock(uint32_t Periphs)
  63              		.loc 2 225 22 view .LVU4
  64              	.LBB47:
 226:Drivers/STM32F0xx_HAL_Driver/Inc/stm32f0xx_ll_bus.h **** {
 227:Drivers/STM32F0xx_HAL_Driver/Inc/stm32f0xx_ll_bus.h ****   __IO uint32_t tmpreg;
  65              		.loc 2 227 3 view .LVU5
 228:Drivers/STM32F0xx_HAL_Driver/Inc/stm32f0xx_ll_bus.h ****   SET_BIT(RCC->AHBENR, Periphs);
  66              		.loc 2 228 3 view .LVU6
  67 0018 5D4B     		ldr	r3, .L2
  68 001a 5A69     		ldr	r2, [r3, #20]
  69 001c 8021     		movs	r1, #128
  70 001e C903     		lsls	r1, r1, #15
  71 0020 0A43     		orrs	r2, r1
  72 0022 5A61     		str	r2, [r3, #20]
 229:Drivers/STM32F0xx_HAL_Driver/Inc/stm32f0xx_ll_bus.h ****   /* Delay after an RCC peripheral clock enabling */
 230:Drivers/STM32F0xx_HAL_Driver/Inc/stm32f0xx_ll_bus.h ****   tmpreg = READ_BIT(RCC->AHBENR, Periphs);
  73              		.loc 2 230 3 view .LVU7
  74              		.loc 2 230 12 is_stmt 0 view .LVU8
  75 0024 5A69     		ldr	r2, [r3, #20]
  76 0026 0A40     		ands	r2, r1
  77              		.loc 2 230 10 view .LVU9
  78 0028 0392     		str	r2, [sp, #12]
 231:Drivers/STM32F0xx_HAL_Driver/Inc/stm32f0xx_ll_bus.h ****   (void)tmpreg;
  79              		.loc 2 231 3 is_stmt 1 view .LVU10
  80 002a 039A     		ldr	r2, [sp, #12]
  81              	.LVL1:
  82              		.loc 2 231 3 is_stmt 0 view .LVU11
  83              	.LBE47:
  84              	.LBE46:
 194:Core/Src/main.c ****   LL_AHB1_GRP1_EnableClock(LL_AHB1_GRP1_PERIPH_GPIOA);
  85              		.loc 1 194 3 is_stmt 1 view .LVU12
  86              	.LBB48:
  87              	.LBI48:
 225:Drivers/STM32F0xx_HAL_Driver/Inc/stm32f0xx_ll_bus.h **** {
  88              		.loc 2 225 22 view .LVU13
ARM GAS  C:\Users\vuyani\AppData\Local\Temp\ccwdY4Wa.s 			page 10


  89              	.LBB49:
 227:Drivers/STM32F0xx_HAL_Driver/Inc/stm32f0xx_ll_bus.h ****   SET_BIT(RCC->AHBENR, Periphs);
  90              		.loc 2 227 3 view .LVU14
 228:Drivers/STM32F0xx_HAL_Driver/Inc/stm32f0xx_ll_bus.h ****   /* Delay after an RCC peripheral clock enabling */
  91              		.loc 2 228 3 view .LVU15
  92 002c 5A69     		ldr	r2, [r3, #20]
  93 002e 8021     		movs	r1, #128
  94 0030 8902     		lsls	r1, r1, #10
  95 0032 0A43     		orrs	r2, r1
  96 0034 5A61     		str	r2, [r3, #20]
 230:Drivers/STM32F0xx_HAL_Driver/Inc/stm32f0xx_ll_bus.h ****   (void)tmpreg;
  97              		.loc 2 230 3 view .LVU16
 230:Drivers/STM32F0xx_HAL_Driver/Inc/stm32f0xx_ll_bus.h ****   (void)tmpreg;
  98              		.loc 2 230 12 is_stmt 0 view .LVU17
  99 0036 5A69     		ldr	r2, [r3, #20]
 100 0038 0A40     		ands	r2, r1
 230:Drivers/STM32F0xx_HAL_Driver/Inc/stm32f0xx_ll_bus.h ****   (void)tmpreg;
 101              		.loc 2 230 10 view .LVU18
 102 003a 0292     		str	r2, [sp, #8]
 103              		.loc 2 231 3 is_stmt 1 view .LVU19
 104 003c 029A     		ldr	r2, [sp, #8]
 105              	.LVL2:
 106              		.loc 2 231 3 is_stmt 0 view .LVU20
 107              	.LBE49:
 108              	.LBE48:
 195:Core/Src/main.c ****   LL_AHB1_GRP1_EnableClock(LL_AHB1_GRP1_PERIPH_GPIOB);
 109              		.loc 1 195 3 is_stmt 1 view .LVU21
 110              	.LBB50:
 111              	.LBI50:
 225:Drivers/STM32F0xx_HAL_Driver/Inc/stm32f0xx_ll_bus.h **** {
 112              		.loc 2 225 22 view .LVU22
 113              	.LBB51:
 227:Drivers/STM32F0xx_HAL_Driver/Inc/stm32f0xx_ll_bus.h ****   SET_BIT(RCC->AHBENR, Periphs);
 114              		.loc 2 227 3 view .LVU23
 228:Drivers/STM32F0xx_HAL_Driver/Inc/stm32f0xx_ll_bus.h ****   /* Delay after an RCC peripheral clock enabling */
 115              		.loc 2 228 3 view .LVU24
 116 003e 5A69     		ldr	r2, [r3, #20]
 117 0040 8021     		movs	r1, #128
 118 0042 C902     		lsls	r1, r1, #11
 119 0044 0A43     		orrs	r2, r1
 120 0046 5A61     		str	r2, [r3, #20]
 230:Drivers/STM32F0xx_HAL_Driver/Inc/stm32f0xx_ll_bus.h ****   (void)tmpreg;
 121              		.loc 2 230 3 view .LVU25
 230:Drivers/STM32F0xx_HAL_Driver/Inc/stm32f0xx_ll_bus.h ****   (void)tmpreg;
 122              		.loc 2 230 12 is_stmt 0 view .LVU26
 123 0048 5B69     		ldr	r3, [r3, #20]
 124 004a 0B40     		ands	r3, r1
 230:Drivers/STM32F0xx_HAL_Driver/Inc/stm32f0xx_ll_bus.h ****   (void)tmpreg;
 125              		.loc 2 230 10 view .LVU27
 126 004c 0193     		str	r3, [sp, #4]
 127              		.loc 2 231 3 is_stmt 1 view .LVU28
 128 004e 019B     		ldr	r3, [sp, #4]
 129              	.LVL3:
 130              		.loc 2 231 3 is_stmt 0 view .LVU29
 131              	.LBE51:
 132              	.LBE50:
 196:Core/Src/main.c **** 
ARM GAS  C:\Users\vuyani\AppData\Local\Temp\ccwdY4Wa.s 			page 11


 197:Core/Src/main.c ****   /**/
 198:Core/Src/main.c ****   LL_GPIO_ResetOutputPin(LED0_GPIO_Port, LED0_Pin);
 133              		.loc 1 198 3 is_stmt 1 view .LVU30
 134              	.LBB52:
 135              	.LBI52:
 136              		.file 3 "Drivers/STM32F0xx_HAL_Driver/Inc/stm32f0xx_ll_gpio.h"
   1:Drivers/STM32F0xx_HAL_Driver/Inc/stm32f0xx_ll_gpio.h **** /**
   2:Drivers/STM32F0xx_HAL_Driver/Inc/stm32f0xx_ll_gpio.h ****   ******************************************************************************
   3:Drivers/STM32F0xx_HAL_Driver/Inc/stm32f0xx_ll_gpio.h ****   * @file    stm32f0xx_ll_gpio.h
   4:Drivers/STM32F0xx_HAL_Driver/Inc/stm32f0xx_ll_gpio.h ****   * @author  MCD Application Team
   5:Drivers/STM32F0xx_HAL_Driver/Inc/stm32f0xx_ll_gpio.h ****   * @brief   Header file of GPIO LL module.
   6:Drivers/STM32F0xx_HAL_Driver/Inc/stm32f0xx_ll_gpio.h ****   ******************************************************************************
   7:Drivers/STM32F0xx_HAL_Driver/Inc/stm32f0xx_ll_gpio.h ****   * @attention
   8:Drivers/STM32F0xx_HAL_Driver/Inc/stm32f0xx_ll_gpio.h ****   *
   9:Drivers/STM32F0xx_HAL_Driver/Inc/stm32f0xx_ll_gpio.h ****   * Copyright (c) 2016 STMicroelectronics.
  10:Drivers/STM32F0xx_HAL_Driver/Inc/stm32f0xx_ll_gpio.h ****   * All rights reserved.
  11:Drivers/STM32F0xx_HAL_Driver/Inc/stm32f0xx_ll_gpio.h ****   *
  12:Drivers/STM32F0xx_HAL_Driver/Inc/stm32f0xx_ll_gpio.h ****   * This software is licensed under terms that can be found in the LICENSE file
  13:Drivers/STM32F0xx_HAL_Driver/Inc/stm32f0xx_ll_gpio.h ****   * in the root directory of this software component.
  14:Drivers/STM32F0xx_HAL_Driver/Inc/stm32f0xx_ll_gpio.h ****   * If no LICENSE file comes with this software, it is provided AS-IS.
  15:Drivers/STM32F0xx_HAL_Driver/Inc/stm32f0xx_ll_gpio.h ****   *
  16:Drivers/STM32F0xx_HAL_Driver/Inc/stm32f0xx_ll_gpio.h ****   ******************************************************************************
  17:Drivers/STM32F0xx_HAL_Driver/Inc/stm32f0xx_ll_gpio.h ****   */
  18:Drivers/STM32F0xx_HAL_Driver/Inc/stm32f0xx_ll_gpio.h **** 
  19:Drivers/STM32F0xx_HAL_Driver/Inc/stm32f0xx_ll_gpio.h **** /* Define to prevent recursive inclusion -------------------------------------*/
  20:Drivers/STM32F0xx_HAL_Driver/Inc/stm32f0xx_ll_gpio.h **** #ifndef __STM32F0xx_LL_GPIO_H
  21:Drivers/STM32F0xx_HAL_Driver/Inc/stm32f0xx_ll_gpio.h **** #define __STM32F0xx_LL_GPIO_H
  22:Drivers/STM32F0xx_HAL_Driver/Inc/stm32f0xx_ll_gpio.h **** 
  23:Drivers/STM32F0xx_HAL_Driver/Inc/stm32f0xx_ll_gpio.h **** #ifdef __cplusplus
  24:Drivers/STM32F0xx_HAL_Driver/Inc/stm32f0xx_ll_gpio.h **** extern "C" {
  25:Drivers/STM32F0xx_HAL_Driver/Inc/stm32f0xx_ll_gpio.h **** #endif
  26:Drivers/STM32F0xx_HAL_Driver/Inc/stm32f0xx_ll_gpio.h **** 
  27:Drivers/STM32F0xx_HAL_Driver/Inc/stm32f0xx_ll_gpio.h **** /* Includes ------------------------------------------------------------------*/
  28:Drivers/STM32F0xx_HAL_Driver/Inc/stm32f0xx_ll_gpio.h **** #include "stm32f0xx.h"
  29:Drivers/STM32F0xx_HAL_Driver/Inc/stm32f0xx_ll_gpio.h **** 
  30:Drivers/STM32F0xx_HAL_Driver/Inc/stm32f0xx_ll_gpio.h **** /** @addtogroup STM32F0xx_LL_Driver
  31:Drivers/STM32F0xx_HAL_Driver/Inc/stm32f0xx_ll_gpio.h ****   * @{
  32:Drivers/STM32F0xx_HAL_Driver/Inc/stm32f0xx_ll_gpio.h ****   */
  33:Drivers/STM32F0xx_HAL_Driver/Inc/stm32f0xx_ll_gpio.h **** 
  34:Drivers/STM32F0xx_HAL_Driver/Inc/stm32f0xx_ll_gpio.h **** #if defined (GPIOA) || defined (GPIOB) || defined (GPIOC) || defined (GPIOD) || defined (GPIOE) || 
  35:Drivers/STM32F0xx_HAL_Driver/Inc/stm32f0xx_ll_gpio.h **** 
  36:Drivers/STM32F0xx_HAL_Driver/Inc/stm32f0xx_ll_gpio.h **** /** @defgroup GPIO_LL GPIO
  37:Drivers/STM32F0xx_HAL_Driver/Inc/stm32f0xx_ll_gpio.h ****   * @{
  38:Drivers/STM32F0xx_HAL_Driver/Inc/stm32f0xx_ll_gpio.h ****   */
  39:Drivers/STM32F0xx_HAL_Driver/Inc/stm32f0xx_ll_gpio.h **** 
  40:Drivers/STM32F0xx_HAL_Driver/Inc/stm32f0xx_ll_gpio.h **** /* Private types -------------------------------------------------------------*/
  41:Drivers/STM32F0xx_HAL_Driver/Inc/stm32f0xx_ll_gpio.h **** /* Private variables ---------------------------------------------------------*/
  42:Drivers/STM32F0xx_HAL_Driver/Inc/stm32f0xx_ll_gpio.h **** /* Private constants ---------------------------------------------------------*/
  43:Drivers/STM32F0xx_HAL_Driver/Inc/stm32f0xx_ll_gpio.h **** /* Private macros ------------------------------------------------------------*/
  44:Drivers/STM32F0xx_HAL_Driver/Inc/stm32f0xx_ll_gpio.h **** #if defined(USE_FULL_LL_DRIVER)
  45:Drivers/STM32F0xx_HAL_Driver/Inc/stm32f0xx_ll_gpio.h **** /** @defgroup GPIO_LL_Private_Macros GPIO Private Macros
  46:Drivers/STM32F0xx_HAL_Driver/Inc/stm32f0xx_ll_gpio.h ****   * @{
  47:Drivers/STM32F0xx_HAL_Driver/Inc/stm32f0xx_ll_gpio.h ****   */
  48:Drivers/STM32F0xx_HAL_Driver/Inc/stm32f0xx_ll_gpio.h **** 
  49:Drivers/STM32F0xx_HAL_Driver/Inc/stm32f0xx_ll_gpio.h **** /**
  50:Drivers/STM32F0xx_HAL_Driver/Inc/stm32f0xx_ll_gpio.h ****   * @}
  51:Drivers/STM32F0xx_HAL_Driver/Inc/stm32f0xx_ll_gpio.h ****   */
ARM GAS  C:\Users\vuyani\AppData\Local\Temp\ccwdY4Wa.s 			page 12


  52:Drivers/STM32F0xx_HAL_Driver/Inc/stm32f0xx_ll_gpio.h **** #endif /*USE_FULL_LL_DRIVER*/
  53:Drivers/STM32F0xx_HAL_Driver/Inc/stm32f0xx_ll_gpio.h **** 
  54:Drivers/STM32F0xx_HAL_Driver/Inc/stm32f0xx_ll_gpio.h **** /* Exported types ------------------------------------------------------------*/
  55:Drivers/STM32F0xx_HAL_Driver/Inc/stm32f0xx_ll_gpio.h **** #if defined(USE_FULL_LL_DRIVER)
  56:Drivers/STM32F0xx_HAL_Driver/Inc/stm32f0xx_ll_gpio.h **** /** @defgroup GPIO_LL_ES_INIT GPIO Exported Init structures
  57:Drivers/STM32F0xx_HAL_Driver/Inc/stm32f0xx_ll_gpio.h ****   * @{
  58:Drivers/STM32F0xx_HAL_Driver/Inc/stm32f0xx_ll_gpio.h ****   */
  59:Drivers/STM32F0xx_HAL_Driver/Inc/stm32f0xx_ll_gpio.h **** 
  60:Drivers/STM32F0xx_HAL_Driver/Inc/stm32f0xx_ll_gpio.h **** /**
  61:Drivers/STM32F0xx_HAL_Driver/Inc/stm32f0xx_ll_gpio.h ****   * @brief LL GPIO Init Structure definition
  62:Drivers/STM32F0xx_HAL_Driver/Inc/stm32f0xx_ll_gpio.h ****   */
  63:Drivers/STM32F0xx_HAL_Driver/Inc/stm32f0xx_ll_gpio.h **** typedef struct
  64:Drivers/STM32F0xx_HAL_Driver/Inc/stm32f0xx_ll_gpio.h **** {
  65:Drivers/STM32F0xx_HAL_Driver/Inc/stm32f0xx_ll_gpio.h ****   uint32_t Pin;          /*!< Specifies the GPIO pins to be configured.
  66:Drivers/STM32F0xx_HAL_Driver/Inc/stm32f0xx_ll_gpio.h ****                               This parameter can be any value of @ref GPIO_LL_EC_PIN */
  67:Drivers/STM32F0xx_HAL_Driver/Inc/stm32f0xx_ll_gpio.h **** 
  68:Drivers/STM32F0xx_HAL_Driver/Inc/stm32f0xx_ll_gpio.h ****   uint32_t Mode;         /*!< Specifies the operating mode for the selected pins.
  69:Drivers/STM32F0xx_HAL_Driver/Inc/stm32f0xx_ll_gpio.h ****                               This parameter can be a value of @ref GPIO_LL_EC_MODE.
  70:Drivers/STM32F0xx_HAL_Driver/Inc/stm32f0xx_ll_gpio.h **** 
  71:Drivers/STM32F0xx_HAL_Driver/Inc/stm32f0xx_ll_gpio.h ****                               GPIO HW configuration can be modified afterwards using unitary functi
  72:Drivers/STM32F0xx_HAL_Driver/Inc/stm32f0xx_ll_gpio.h **** 
  73:Drivers/STM32F0xx_HAL_Driver/Inc/stm32f0xx_ll_gpio.h ****   uint32_t Speed;        /*!< Specifies the speed for the selected pins.
  74:Drivers/STM32F0xx_HAL_Driver/Inc/stm32f0xx_ll_gpio.h ****                               This parameter can be a value of @ref GPIO_LL_EC_SPEED.
  75:Drivers/STM32F0xx_HAL_Driver/Inc/stm32f0xx_ll_gpio.h **** 
  76:Drivers/STM32F0xx_HAL_Driver/Inc/stm32f0xx_ll_gpio.h ****                               GPIO HW configuration can be modified afterwards using unitary functi
  77:Drivers/STM32F0xx_HAL_Driver/Inc/stm32f0xx_ll_gpio.h **** 
  78:Drivers/STM32F0xx_HAL_Driver/Inc/stm32f0xx_ll_gpio.h ****   uint32_t OutputType;   /*!< Specifies the operating output type for the selected pins.
  79:Drivers/STM32F0xx_HAL_Driver/Inc/stm32f0xx_ll_gpio.h ****                               This parameter can be a value of @ref GPIO_LL_EC_OUTPUT.
  80:Drivers/STM32F0xx_HAL_Driver/Inc/stm32f0xx_ll_gpio.h **** 
  81:Drivers/STM32F0xx_HAL_Driver/Inc/stm32f0xx_ll_gpio.h ****                               GPIO HW configuration can be modified afterwards using unitary functi
  82:Drivers/STM32F0xx_HAL_Driver/Inc/stm32f0xx_ll_gpio.h **** 
  83:Drivers/STM32F0xx_HAL_Driver/Inc/stm32f0xx_ll_gpio.h ****   uint32_t Pull;         /*!< Specifies the operating Pull-up/Pull down for the selected pins.
  84:Drivers/STM32F0xx_HAL_Driver/Inc/stm32f0xx_ll_gpio.h ****                               This parameter can be a value of @ref GPIO_LL_EC_PULL.
  85:Drivers/STM32F0xx_HAL_Driver/Inc/stm32f0xx_ll_gpio.h **** 
  86:Drivers/STM32F0xx_HAL_Driver/Inc/stm32f0xx_ll_gpio.h ****                               GPIO HW configuration can be modified afterwards using unitary functi
  87:Drivers/STM32F0xx_HAL_Driver/Inc/stm32f0xx_ll_gpio.h **** 
  88:Drivers/STM32F0xx_HAL_Driver/Inc/stm32f0xx_ll_gpio.h ****   uint32_t Alternate;    /*!< Specifies the Peripheral to be connected to the selected pins.
  89:Drivers/STM32F0xx_HAL_Driver/Inc/stm32f0xx_ll_gpio.h ****                               This parameter can be a value of @ref GPIO_LL_EC_AF.
  90:Drivers/STM32F0xx_HAL_Driver/Inc/stm32f0xx_ll_gpio.h **** 
  91:Drivers/STM32F0xx_HAL_Driver/Inc/stm32f0xx_ll_gpio.h ****                               GPIO HW configuration can be modified afterwards using unitary functi
  92:Drivers/STM32F0xx_HAL_Driver/Inc/stm32f0xx_ll_gpio.h **** } LL_GPIO_InitTypeDef;
  93:Drivers/STM32F0xx_HAL_Driver/Inc/stm32f0xx_ll_gpio.h **** 
  94:Drivers/STM32F0xx_HAL_Driver/Inc/stm32f0xx_ll_gpio.h **** /**
  95:Drivers/STM32F0xx_HAL_Driver/Inc/stm32f0xx_ll_gpio.h ****   * @}
  96:Drivers/STM32F0xx_HAL_Driver/Inc/stm32f0xx_ll_gpio.h ****   */
  97:Drivers/STM32F0xx_HAL_Driver/Inc/stm32f0xx_ll_gpio.h **** #endif /* USE_FULL_LL_DRIVER */
  98:Drivers/STM32F0xx_HAL_Driver/Inc/stm32f0xx_ll_gpio.h **** 
  99:Drivers/STM32F0xx_HAL_Driver/Inc/stm32f0xx_ll_gpio.h **** /* Exported constants --------------------------------------------------------*/
 100:Drivers/STM32F0xx_HAL_Driver/Inc/stm32f0xx_ll_gpio.h **** /** @defgroup GPIO_LL_Exported_Constants GPIO Exported Constants
 101:Drivers/STM32F0xx_HAL_Driver/Inc/stm32f0xx_ll_gpio.h ****   * @{
 102:Drivers/STM32F0xx_HAL_Driver/Inc/stm32f0xx_ll_gpio.h ****   */
 103:Drivers/STM32F0xx_HAL_Driver/Inc/stm32f0xx_ll_gpio.h **** 
 104:Drivers/STM32F0xx_HAL_Driver/Inc/stm32f0xx_ll_gpio.h **** /** @defgroup GPIO_LL_EC_PIN PIN
 105:Drivers/STM32F0xx_HAL_Driver/Inc/stm32f0xx_ll_gpio.h ****   * @{
 106:Drivers/STM32F0xx_HAL_Driver/Inc/stm32f0xx_ll_gpio.h ****   */
 107:Drivers/STM32F0xx_HAL_Driver/Inc/stm32f0xx_ll_gpio.h **** #define LL_GPIO_PIN_0                      GPIO_BSRR_BS_0 /*!< Select pin 0 */
 108:Drivers/STM32F0xx_HAL_Driver/Inc/stm32f0xx_ll_gpio.h **** #define LL_GPIO_PIN_1                      GPIO_BSRR_BS_1 /*!< Select pin 1 */
ARM GAS  C:\Users\vuyani\AppData\Local\Temp\ccwdY4Wa.s 			page 13


 109:Drivers/STM32F0xx_HAL_Driver/Inc/stm32f0xx_ll_gpio.h **** #define LL_GPIO_PIN_2                      GPIO_BSRR_BS_2 /*!< Select pin 2 */
 110:Drivers/STM32F0xx_HAL_Driver/Inc/stm32f0xx_ll_gpio.h **** #define LL_GPIO_PIN_3                      GPIO_BSRR_BS_3 /*!< Select pin 3 */
 111:Drivers/STM32F0xx_HAL_Driver/Inc/stm32f0xx_ll_gpio.h **** #define LL_GPIO_PIN_4                      GPIO_BSRR_BS_4 /*!< Select pin 4 */
 112:Drivers/STM32F0xx_HAL_Driver/Inc/stm32f0xx_ll_gpio.h **** #define LL_GPIO_PIN_5                      GPIO_BSRR_BS_5 /*!< Select pin 5 */
 113:Drivers/STM32F0xx_HAL_Driver/Inc/stm32f0xx_ll_gpio.h **** #define LL_GPIO_PIN_6                      GPIO_BSRR_BS_6 /*!< Select pin 6 */
 114:Drivers/STM32F0xx_HAL_Driver/Inc/stm32f0xx_ll_gpio.h **** #define LL_GPIO_PIN_7                      GPIO_BSRR_BS_7 /*!< Select pin 7 */
 115:Drivers/STM32F0xx_HAL_Driver/Inc/stm32f0xx_ll_gpio.h **** #define LL_GPIO_PIN_8                      GPIO_BSRR_BS_8 /*!< Select pin 8 */
 116:Drivers/STM32F0xx_HAL_Driver/Inc/stm32f0xx_ll_gpio.h **** #define LL_GPIO_PIN_9                      GPIO_BSRR_BS_9 /*!< Select pin 9 */
 117:Drivers/STM32F0xx_HAL_Driver/Inc/stm32f0xx_ll_gpio.h **** #define LL_GPIO_PIN_10                     GPIO_BSRR_BS_10 /*!< Select pin 10 */
 118:Drivers/STM32F0xx_HAL_Driver/Inc/stm32f0xx_ll_gpio.h **** #define LL_GPIO_PIN_11                     GPIO_BSRR_BS_11 /*!< Select pin 11 */
 119:Drivers/STM32F0xx_HAL_Driver/Inc/stm32f0xx_ll_gpio.h **** #define LL_GPIO_PIN_12                     GPIO_BSRR_BS_12 /*!< Select pin 12 */
 120:Drivers/STM32F0xx_HAL_Driver/Inc/stm32f0xx_ll_gpio.h **** #define LL_GPIO_PIN_13                     GPIO_BSRR_BS_13 /*!< Select pin 13 */
 121:Drivers/STM32F0xx_HAL_Driver/Inc/stm32f0xx_ll_gpio.h **** #define LL_GPIO_PIN_14                     GPIO_BSRR_BS_14 /*!< Select pin 14 */
 122:Drivers/STM32F0xx_HAL_Driver/Inc/stm32f0xx_ll_gpio.h **** #define LL_GPIO_PIN_15                     GPIO_BSRR_BS_15 /*!< Select pin 15 */
 123:Drivers/STM32F0xx_HAL_Driver/Inc/stm32f0xx_ll_gpio.h **** #define LL_GPIO_PIN_ALL                    (GPIO_BSRR_BS_0 | GPIO_BSRR_BS_1  | GPIO_BSRR_BS_2  | \
 124:Drivers/STM32F0xx_HAL_Driver/Inc/stm32f0xx_ll_gpio.h ****                                            GPIO_BSRR_BS_3  | GPIO_BSRR_BS_4  | GPIO_BSRR_BS_5  | \
 125:Drivers/STM32F0xx_HAL_Driver/Inc/stm32f0xx_ll_gpio.h ****                                            GPIO_BSRR_BS_6  | GPIO_BSRR_BS_7  | GPIO_BSRR_BS_8  | \
 126:Drivers/STM32F0xx_HAL_Driver/Inc/stm32f0xx_ll_gpio.h ****                                            GPIO_BSRR_BS_9  | GPIO_BSRR_BS_10 | GPIO_BSRR_BS_11 | \
 127:Drivers/STM32F0xx_HAL_Driver/Inc/stm32f0xx_ll_gpio.h ****                                            GPIO_BSRR_BS_12 | GPIO_BSRR_BS_13 | GPIO_BSRR_BS_14 | \
 128:Drivers/STM32F0xx_HAL_Driver/Inc/stm32f0xx_ll_gpio.h ****                                            GPIO_BSRR_BS_15) /*!< Select all pins */
 129:Drivers/STM32F0xx_HAL_Driver/Inc/stm32f0xx_ll_gpio.h **** /**
 130:Drivers/STM32F0xx_HAL_Driver/Inc/stm32f0xx_ll_gpio.h ****   * @}
 131:Drivers/STM32F0xx_HAL_Driver/Inc/stm32f0xx_ll_gpio.h ****   */
 132:Drivers/STM32F0xx_HAL_Driver/Inc/stm32f0xx_ll_gpio.h **** 
 133:Drivers/STM32F0xx_HAL_Driver/Inc/stm32f0xx_ll_gpio.h **** /** @defgroup GPIO_LL_EC_MODE Mode
 134:Drivers/STM32F0xx_HAL_Driver/Inc/stm32f0xx_ll_gpio.h ****   * @{
 135:Drivers/STM32F0xx_HAL_Driver/Inc/stm32f0xx_ll_gpio.h ****   */
 136:Drivers/STM32F0xx_HAL_Driver/Inc/stm32f0xx_ll_gpio.h **** #define LL_GPIO_MODE_INPUT                 (0x00000000U) /*!< Select input mode */
 137:Drivers/STM32F0xx_HAL_Driver/Inc/stm32f0xx_ll_gpio.h **** #define LL_GPIO_MODE_OUTPUT                GPIO_MODER_MODER0_0  /*!< Select output mode */
 138:Drivers/STM32F0xx_HAL_Driver/Inc/stm32f0xx_ll_gpio.h **** #define LL_GPIO_MODE_ALTERNATE             GPIO_MODER_MODER0_1  /*!< Select alternate function mode
 139:Drivers/STM32F0xx_HAL_Driver/Inc/stm32f0xx_ll_gpio.h **** #define LL_GPIO_MODE_ANALOG                GPIO_MODER_MODER0    /*!< Select analog mode */
 140:Drivers/STM32F0xx_HAL_Driver/Inc/stm32f0xx_ll_gpio.h **** /**
 141:Drivers/STM32F0xx_HAL_Driver/Inc/stm32f0xx_ll_gpio.h ****   * @}
 142:Drivers/STM32F0xx_HAL_Driver/Inc/stm32f0xx_ll_gpio.h ****   */
 143:Drivers/STM32F0xx_HAL_Driver/Inc/stm32f0xx_ll_gpio.h **** 
 144:Drivers/STM32F0xx_HAL_Driver/Inc/stm32f0xx_ll_gpio.h **** /** @defgroup GPIO_LL_EC_OUTPUT Output Type
 145:Drivers/STM32F0xx_HAL_Driver/Inc/stm32f0xx_ll_gpio.h ****   * @{
 146:Drivers/STM32F0xx_HAL_Driver/Inc/stm32f0xx_ll_gpio.h ****   */
 147:Drivers/STM32F0xx_HAL_Driver/Inc/stm32f0xx_ll_gpio.h **** #define LL_GPIO_OUTPUT_PUSHPULL            (0x00000000U) /*!< Select push-pull as output type */
 148:Drivers/STM32F0xx_HAL_Driver/Inc/stm32f0xx_ll_gpio.h **** #define LL_GPIO_OUTPUT_OPENDRAIN           GPIO_OTYPER_OT_0 /*!< Select open-drain as output type *
 149:Drivers/STM32F0xx_HAL_Driver/Inc/stm32f0xx_ll_gpio.h **** /**
 150:Drivers/STM32F0xx_HAL_Driver/Inc/stm32f0xx_ll_gpio.h ****   * @}
 151:Drivers/STM32F0xx_HAL_Driver/Inc/stm32f0xx_ll_gpio.h ****   */
 152:Drivers/STM32F0xx_HAL_Driver/Inc/stm32f0xx_ll_gpio.h **** 
 153:Drivers/STM32F0xx_HAL_Driver/Inc/stm32f0xx_ll_gpio.h **** /** @defgroup GPIO_LL_EC_SPEED Output Speed
 154:Drivers/STM32F0xx_HAL_Driver/Inc/stm32f0xx_ll_gpio.h ****   * @{
 155:Drivers/STM32F0xx_HAL_Driver/Inc/stm32f0xx_ll_gpio.h ****   */
 156:Drivers/STM32F0xx_HAL_Driver/Inc/stm32f0xx_ll_gpio.h **** #define LL_GPIO_SPEED_FREQ_LOW             (0x00000000U) /*!< Select I/O low output speed    */
 157:Drivers/STM32F0xx_HAL_Driver/Inc/stm32f0xx_ll_gpio.h **** #define LL_GPIO_SPEED_FREQ_MEDIUM          GPIO_OSPEEDR_OSPEEDR0_0 /*!< Select I/O medium output sp
 158:Drivers/STM32F0xx_HAL_Driver/Inc/stm32f0xx_ll_gpio.h **** #define LL_GPIO_SPEED_FREQ_HIGH            GPIO_OSPEEDR_OSPEEDR0   /*!< Select I/O high output spee
 159:Drivers/STM32F0xx_HAL_Driver/Inc/stm32f0xx_ll_gpio.h **** /**
 160:Drivers/STM32F0xx_HAL_Driver/Inc/stm32f0xx_ll_gpio.h ****   * @}
 161:Drivers/STM32F0xx_HAL_Driver/Inc/stm32f0xx_ll_gpio.h ****   */
 162:Drivers/STM32F0xx_HAL_Driver/Inc/stm32f0xx_ll_gpio.h **** #define LL_GPIO_SPEED_LOW                  LL_GPIO_SPEED_FREQ_LOW
 163:Drivers/STM32F0xx_HAL_Driver/Inc/stm32f0xx_ll_gpio.h **** #define LL_GPIO_SPEED_MEDIUM               LL_GPIO_SPEED_FREQ_MEDIUM
 164:Drivers/STM32F0xx_HAL_Driver/Inc/stm32f0xx_ll_gpio.h **** #define LL_GPIO_SPEED_HIGH                 LL_GPIO_SPEED_FREQ_HIGH
 165:Drivers/STM32F0xx_HAL_Driver/Inc/stm32f0xx_ll_gpio.h **** 
ARM GAS  C:\Users\vuyani\AppData\Local\Temp\ccwdY4Wa.s 			page 14


 166:Drivers/STM32F0xx_HAL_Driver/Inc/stm32f0xx_ll_gpio.h **** /** @defgroup GPIO_LL_EC_PULL Pull Up Pull Down
 167:Drivers/STM32F0xx_HAL_Driver/Inc/stm32f0xx_ll_gpio.h ****   * @{
 168:Drivers/STM32F0xx_HAL_Driver/Inc/stm32f0xx_ll_gpio.h ****   */
 169:Drivers/STM32F0xx_HAL_Driver/Inc/stm32f0xx_ll_gpio.h **** #define LL_GPIO_PULL_NO                    (0x00000000U) /*!< Select I/O no pull */
 170:Drivers/STM32F0xx_HAL_Driver/Inc/stm32f0xx_ll_gpio.h **** #define LL_GPIO_PULL_UP                    GPIO_PUPDR_PUPDR0_0 /*!< Select I/O pull up */
 171:Drivers/STM32F0xx_HAL_Driver/Inc/stm32f0xx_ll_gpio.h **** #define LL_GPIO_PULL_DOWN                  GPIO_PUPDR_PUPDR0_1 /*!< Select I/O pull down */
 172:Drivers/STM32F0xx_HAL_Driver/Inc/stm32f0xx_ll_gpio.h **** /**
 173:Drivers/STM32F0xx_HAL_Driver/Inc/stm32f0xx_ll_gpio.h ****   * @}
 174:Drivers/STM32F0xx_HAL_Driver/Inc/stm32f0xx_ll_gpio.h ****   */
 175:Drivers/STM32F0xx_HAL_Driver/Inc/stm32f0xx_ll_gpio.h **** 
 176:Drivers/STM32F0xx_HAL_Driver/Inc/stm32f0xx_ll_gpio.h **** /** @defgroup GPIO_LL_EC_AF Alternate Function
 177:Drivers/STM32F0xx_HAL_Driver/Inc/stm32f0xx_ll_gpio.h ****   * @{
 178:Drivers/STM32F0xx_HAL_Driver/Inc/stm32f0xx_ll_gpio.h ****   */
 179:Drivers/STM32F0xx_HAL_Driver/Inc/stm32f0xx_ll_gpio.h **** #define LL_GPIO_AF_0                       (0x0000000U) /*!< Select alternate function 0 */
 180:Drivers/STM32F0xx_HAL_Driver/Inc/stm32f0xx_ll_gpio.h **** #define LL_GPIO_AF_1                       (0x0000001U) /*!< Select alternate function 1 */
 181:Drivers/STM32F0xx_HAL_Driver/Inc/stm32f0xx_ll_gpio.h **** #define LL_GPIO_AF_2                       (0x0000002U) /*!< Select alternate function 2 */
 182:Drivers/STM32F0xx_HAL_Driver/Inc/stm32f0xx_ll_gpio.h **** #define LL_GPIO_AF_3                       (0x0000003U) /*!< Select alternate function 3 */
 183:Drivers/STM32F0xx_HAL_Driver/Inc/stm32f0xx_ll_gpio.h **** #define LL_GPIO_AF_4                       (0x0000004U) /*!< Select alternate function 4 */
 184:Drivers/STM32F0xx_HAL_Driver/Inc/stm32f0xx_ll_gpio.h **** #define LL_GPIO_AF_5                       (0x0000005U) /*!< Select alternate function 5 */
 185:Drivers/STM32F0xx_HAL_Driver/Inc/stm32f0xx_ll_gpio.h **** #define LL_GPIO_AF_6                       (0x0000006U) /*!< Select alternate function 6 */
 186:Drivers/STM32F0xx_HAL_Driver/Inc/stm32f0xx_ll_gpio.h **** #define LL_GPIO_AF_7                       (0x0000007U) /*!< Select alternate function 7 */
 187:Drivers/STM32F0xx_HAL_Driver/Inc/stm32f0xx_ll_gpio.h **** /**
 188:Drivers/STM32F0xx_HAL_Driver/Inc/stm32f0xx_ll_gpio.h ****   * @}
 189:Drivers/STM32F0xx_HAL_Driver/Inc/stm32f0xx_ll_gpio.h ****   */
 190:Drivers/STM32F0xx_HAL_Driver/Inc/stm32f0xx_ll_gpio.h **** 
 191:Drivers/STM32F0xx_HAL_Driver/Inc/stm32f0xx_ll_gpio.h **** /**
 192:Drivers/STM32F0xx_HAL_Driver/Inc/stm32f0xx_ll_gpio.h ****   * @}
 193:Drivers/STM32F0xx_HAL_Driver/Inc/stm32f0xx_ll_gpio.h ****   */
 194:Drivers/STM32F0xx_HAL_Driver/Inc/stm32f0xx_ll_gpio.h **** 
 195:Drivers/STM32F0xx_HAL_Driver/Inc/stm32f0xx_ll_gpio.h **** /* Exported macro ------------------------------------------------------------*/
 196:Drivers/STM32F0xx_HAL_Driver/Inc/stm32f0xx_ll_gpio.h **** /** @defgroup GPIO_LL_Exported_Macros GPIO Exported Macros
 197:Drivers/STM32F0xx_HAL_Driver/Inc/stm32f0xx_ll_gpio.h ****   * @{
 198:Drivers/STM32F0xx_HAL_Driver/Inc/stm32f0xx_ll_gpio.h ****   */
 199:Drivers/STM32F0xx_HAL_Driver/Inc/stm32f0xx_ll_gpio.h **** 
 200:Drivers/STM32F0xx_HAL_Driver/Inc/stm32f0xx_ll_gpio.h **** /** @defgroup GPIO_LL_EM_WRITE_READ Common Write and read registers Macros
 201:Drivers/STM32F0xx_HAL_Driver/Inc/stm32f0xx_ll_gpio.h ****   * @{
 202:Drivers/STM32F0xx_HAL_Driver/Inc/stm32f0xx_ll_gpio.h ****   */
 203:Drivers/STM32F0xx_HAL_Driver/Inc/stm32f0xx_ll_gpio.h **** 
 204:Drivers/STM32F0xx_HAL_Driver/Inc/stm32f0xx_ll_gpio.h **** /**
 205:Drivers/STM32F0xx_HAL_Driver/Inc/stm32f0xx_ll_gpio.h ****   * @brief  Write a value in GPIO register
 206:Drivers/STM32F0xx_HAL_Driver/Inc/stm32f0xx_ll_gpio.h ****   * @param  __INSTANCE__ GPIO Instance
 207:Drivers/STM32F0xx_HAL_Driver/Inc/stm32f0xx_ll_gpio.h ****   * @param  __REG__ Register to be written
 208:Drivers/STM32F0xx_HAL_Driver/Inc/stm32f0xx_ll_gpio.h ****   * @param  __VALUE__ Value to be written in the register
 209:Drivers/STM32F0xx_HAL_Driver/Inc/stm32f0xx_ll_gpio.h ****   * @retval None
 210:Drivers/STM32F0xx_HAL_Driver/Inc/stm32f0xx_ll_gpio.h ****   */
 211:Drivers/STM32F0xx_HAL_Driver/Inc/stm32f0xx_ll_gpio.h **** #define LL_GPIO_WriteReg(__INSTANCE__, __REG__, __VALUE__) WRITE_REG(__INSTANCE__->__REG__, (__VALU
 212:Drivers/STM32F0xx_HAL_Driver/Inc/stm32f0xx_ll_gpio.h **** 
 213:Drivers/STM32F0xx_HAL_Driver/Inc/stm32f0xx_ll_gpio.h **** /**
 214:Drivers/STM32F0xx_HAL_Driver/Inc/stm32f0xx_ll_gpio.h ****   * @brief  Read a value in GPIO register
 215:Drivers/STM32F0xx_HAL_Driver/Inc/stm32f0xx_ll_gpio.h ****   * @param  __INSTANCE__ GPIO Instance
 216:Drivers/STM32F0xx_HAL_Driver/Inc/stm32f0xx_ll_gpio.h ****   * @param  __REG__ Register to be read
 217:Drivers/STM32F0xx_HAL_Driver/Inc/stm32f0xx_ll_gpio.h ****   * @retval Register value
 218:Drivers/STM32F0xx_HAL_Driver/Inc/stm32f0xx_ll_gpio.h ****   */
 219:Drivers/STM32F0xx_HAL_Driver/Inc/stm32f0xx_ll_gpio.h **** #define LL_GPIO_ReadReg(__INSTANCE__, __REG__) READ_REG(__INSTANCE__->__REG__)
 220:Drivers/STM32F0xx_HAL_Driver/Inc/stm32f0xx_ll_gpio.h **** /**
 221:Drivers/STM32F0xx_HAL_Driver/Inc/stm32f0xx_ll_gpio.h ****   * @}
 222:Drivers/STM32F0xx_HAL_Driver/Inc/stm32f0xx_ll_gpio.h ****   */
ARM GAS  C:\Users\vuyani\AppData\Local\Temp\ccwdY4Wa.s 			page 15


 223:Drivers/STM32F0xx_HAL_Driver/Inc/stm32f0xx_ll_gpio.h **** 
 224:Drivers/STM32F0xx_HAL_Driver/Inc/stm32f0xx_ll_gpio.h **** /**
 225:Drivers/STM32F0xx_HAL_Driver/Inc/stm32f0xx_ll_gpio.h ****   * @}
 226:Drivers/STM32F0xx_HAL_Driver/Inc/stm32f0xx_ll_gpio.h ****   */
 227:Drivers/STM32F0xx_HAL_Driver/Inc/stm32f0xx_ll_gpio.h **** 
 228:Drivers/STM32F0xx_HAL_Driver/Inc/stm32f0xx_ll_gpio.h **** /* Exported functions --------------------------------------------------------*/
 229:Drivers/STM32F0xx_HAL_Driver/Inc/stm32f0xx_ll_gpio.h **** /** @defgroup GPIO_LL_Exported_Functions GPIO Exported Functions
 230:Drivers/STM32F0xx_HAL_Driver/Inc/stm32f0xx_ll_gpio.h ****   * @{
 231:Drivers/STM32F0xx_HAL_Driver/Inc/stm32f0xx_ll_gpio.h ****   */
 232:Drivers/STM32F0xx_HAL_Driver/Inc/stm32f0xx_ll_gpio.h **** 
 233:Drivers/STM32F0xx_HAL_Driver/Inc/stm32f0xx_ll_gpio.h **** /** @defgroup GPIO_LL_EF_Port_Configuration Port Configuration
 234:Drivers/STM32F0xx_HAL_Driver/Inc/stm32f0xx_ll_gpio.h ****   * @{
 235:Drivers/STM32F0xx_HAL_Driver/Inc/stm32f0xx_ll_gpio.h ****   */
 236:Drivers/STM32F0xx_HAL_Driver/Inc/stm32f0xx_ll_gpio.h **** 
 237:Drivers/STM32F0xx_HAL_Driver/Inc/stm32f0xx_ll_gpio.h **** /**
 238:Drivers/STM32F0xx_HAL_Driver/Inc/stm32f0xx_ll_gpio.h ****   * @brief  Configure gpio mode for a dedicated pin on dedicated port.
 239:Drivers/STM32F0xx_HAL_Driver/Inc/stm32f0xx_ll_gpio.h ****   * @note   I/O mode can be Input mode, General purpose output, Alternate function mode or Analog.
 240:Drivers/STM32F0xx_HAL_Driver/Inc/stm32f0xx_ll_gpio.h ****   * @note   Warning: only one pin can be passed as parameter.
 241:Drivers/STM32F0xx_HAL_Driver/Inc/stm32f0xx_ll_gpio.h ****   * @rmtoll MODER        MODEy         LL_GPIO_SetPinMode
 242:Drivers/STM32F0xx_HAL_Driver/Inc/stm32f0xx_ll_gpio.h ****   * @param  GPIOx GPIO Port
 243:Drivers/STM32F0xx_HAL_Driver/Inc/stm32f0xx_ll_gpio.h ****   * @param  Pin This parameter can be one of the following values:
 244:Drivers/STM32F0xx_HAL_Driver/Inc/stm32f0xx_ll_gpio.h ****   *         @arg @ref LL_GPIO_PIN_0
 245:Drivers/STM32F0xx_HAL_Driver/Inc/stm32f0xx_ll_gpio.h ****   *         @arg @ref LL_GPIO_PIN_1
 246:Drivers/STM32F0xx_HAL_Driver/Inc/stm32f0xx_ll_gpio.h ****   *         @arg @ref LL_GPIO_PIN_2
 247:Drivers/STM32F0xx_HAL_Driver/Inc/stm32f0xx_ll_gpio.h ****   *         @arg @ref LL_GPIO_PIN_3
 248:Drivers/STM32F0xx_HAL_Driver/Inc/stm32f0xx_ll_gpio.h ****   *         @arg @ref LL_GPIO_PIN_4
 249:Drivers/STM32F0xx_HAL_Driver/Inc/stm32f0xx_ll_gpio.h ****   *         @arg @ref LL_GPIO_PIN_5
 250:Drivers/STM32F0xx_HAL_Driver/Inc/stm32f0xx_ll_gpio.h ****   *         @arg @ref LL_GPIO_PIN_6
 251:Drivers/STM32F0xx_HAL_Driver/Inc/stm32f0xx_ll_gpio.h ****   *         @arg @ref LL_GPIO_PIN_7
 252:Drivers/STM32F0xx_HAL_Driver/Inc/stm32f0xx_ll_gpio.h ****   *         @arg @ref LL_GPIO_PIN_8
 253:Drivers/STM32F0xx_HAL_Driver/Inc/stm32f0xx_ll_gpio.h ****   *         @arg @ref LL_GPIO_PIN_9
 254:Drivers/STM32F0xx_HAL_Driver/Inc/stm32f0xx_ll_gpio.h ****   *         @arg @ref LL_GPIO_PIN_10
 255:Drivers/STM32F0xx_HAL_Driver/Inc/stm32f0xx_ll_gpio.h ****   *         @arg @ref LL_GPIO_PIN_11
 256:Drivers/STM32F0xx_HAL_Driver/Inc/stm32f0xx_ll_gpio.h ****   *         @arg @ref LL_GPIO_PIN_12
 257:Drivers/STM32F0xx_HAL_Driver/Inc/stm32f0xx_ll_gpio.h ****   *         @arg @ref LL_GPIO_PIN_13
 258:Drivers/STM32F0xx_HAL_Driver/Inc/stm32f0xx_ll_gpio.h ****   *         @arg @ref LL_GPIO_PIN_14
 259:Drivers/STM32F0xx_HAL_Driver/Inc/stm32f0xx_ll_gpio.h ****   *         @arg @ref LL_GPIO_PIN_15
 260:Drivers/STM32F0xx_HAL_Driver/Inc/stm32f0xx_ll_gpio.h ****   * @param  Mode This parameter can be one of the following values:
 261:Drivers/STM32F0xx_HAL_Driver/Inc/stm32f0xx_ll_gpio.h ****   *         @arg @ref LL_GPIO_MODE_INPUT
 262:Drivers/STM32F0xx_HAL_Driver/Inc/stm32f0xx_ll_gpio.h ****   *         @arg @ref LL_GPIO_MODE_OUTPUT
 263:Drivers/STM32F0xx_HAL_Driver/Inc/stm32f0xx_ll_gpio.h ****   *         @arg @ref LL_GPIO_MODE_ALTERNATE
 264:Drivers/STM32F0xx_HAL_Driver/Inc/stm32f0xx_ll_gpio.h ****   *         @arg @ref LL_GPIO_MODE_ANALOG
 265:Drivers/STM32F0xx_HAL_Driver/Inc/stm32f0xx_ll_gpio.h ****   * @retval None
 266:Drivers/STM32F0xx_HAL_Driver/Inc/stm32f0xx_ll_gpio.h ****   */
 267:Drivers/STM32F0xx_HAL_Driver/Inc/stm32f0xx_ll_gpio.h **** __STATIC_INLINE void LL_GPIO_SetPinMode(GPIO_TypeDef *GPIOx, uint32_t Pin, uint32_t Mode)
 268:Drivers/STM32F0xx_HAL_Driver/Inc/stm32f0xx_ll_gpio.h **** {
 269:Drivers/STM32F0xx_HAL_Driver/Inc/stm32f0xx_ll_gpio.h ****   MODIFY_REG(GPIOx->MODER, ((Pin * Pin) * GPIO_MODER_MODER0), ((Pin * Pin) * Mode));
 270:Drivers/STM32F0xx_HAL_Driver/Inc/stm32f0xx_ll_gpio.h **** }
 271:Drivers/STM32F0xx_HAL_Driver/Inc/stm32f0xx_ll_gpio.h **** 
 272:Drivers/STM32F0xx_HAL_Driver/Inc/stm32f0xx_ll_gpio.h **** /**
 273:Drivers/STM32F0xx_HAL_Driver/Inc/stm32f0xx_ll_gpio.h ****   * @brief  Return gpio mode for a dedicated pin on dedicated port.
 274:Drivers/STM32F0xx_HAL_Driver/Inc/stm32f0xx_ll_gpio.h ****   * @note   I/O mode can be Input mode, General purpose output, Alternate function mode or Analog.
 275:Drivers/STM32F0xx_HAL_Driver/Inc/stm32f0xx_ll_gpio.h ****   * @note   Warning: only one pin can be passed as parameter.
 276:Drivers/STM32F0xx_HAL_Driver/Inc/stm32f0xx_ll_gpio.h ****   * @rmtoll MODER        MODEy         LL_GPIO_GetPinMode
 277:Drivers/STM32F0xx_HAL_Driver/Inc/stm32f0xx_ll_gpio.h ****   * @param  GPIOx GPIO Port
 278:Drivers/STM32F0xx_HAL_Driver/Inc/stm32f0xx_ll_gpio.h ****   * @param  Pin This parameter can be one of the following values:
 279:Drivers/STM32F0xx_HAL_Driver/Inc/stm32f0xx_ll_gpio.h ****   *         @arg @ref LL_GPIO_PIN_0
ARM GAS  C:\Users\vuyani\AppData\Local\Temp\ccwdY4Wa.s 			page 16


 280:Drivers/STM32F0xx_HAL_Driver/Inc/stm32f0xx_ll_gpio.h ****   *         @arg @ref LL_GPIO_PIN_1
 281:Drivers/STM32F0xx_HAL_Driver/Inc/stm32f0xx_ll_gpio.h ****   *         @arg @ref LL_GPIO_PIN_2
 282:Drivers/STM32F0xx_HAL_Driver/Inc/stm32f0xx_ll_gpio.h ****   *         @arg @ref LL_GPIO_PIN_3
 283:Drivers/STM32F0xx_HAL_Driver/Inc/stm32f0xx_ll_gpio.h ****   *         @arg @ref LL_GPIO_PIN_4
 284:Drivers/STM32F0xx_HAL_Driver/Inc/stm32f0xx_ll_gpio.h ****   *         @arg @ref LL_GPIO_PIN_5
 285:Drivers/STM32F0xx_HAL_Driver/Inc/stm32f0xx_ll_gpio.h ****   *         @arg @ref LL_GPIO_PIN_6
 286:Drivers/STM32F0xx_HAL_Driver/Inc/stm32f0xx_ll_gpio.h ****   *         @arg @ref LL_GPIO_PIN_7
 287:Drivers/STM32F0xx_HAL_Driver/Inc/stm32f0xx_ll_gpio.h ****   *         @arg @ref LL_GPIO_PIN_8
 288:Drivers/STM32F0xx_HAL_Driver/Inc/stm32f0xx_ll_gpio.h ****   *         @arg @ref LL_GPIO_PIN_9
 289:Drivers/STM32F0xx_HAL_Driver/Inc/stm32f0xx_ll_gpio.h ****   *         @arg @ref LL_GPIO_PIN_10
 290:Drivers/STM32F0xx_HAL_Driver/Inc/stm32f0xx_ll_gpio.h ****   *         @arg @ref LL_GPIO_PIN_11
 291:Drivers/STM32F0xx_HAL_Driver/Inc/stm32f0xx_ll_gpio.h ****   *         @arg @ref LL_GPIO_PIN_12
 292:Drivers/STM32F0xx_HAL_Driver/Inc/stm32f0xx_ll_gpio.h ****   *         @arg @ref LL_GPIO_PIN_13
 293:Drivers/STM32F0xx_HAL_Driver/Inc/stm32f0xx_ll_gpio.h ****   *         @arg @ref LL_GPIO_PIN_14
 294:Drivers/STM32F0xx_HAL_Driver/Inc/stm32f0xx_ll_gpio.h ****   *         @arg @ref LL_GPIO_PIN_15
 295:Drivers/STM32F0xx_HAL_Driver/Inc/stm32f0xx_ll_gpio.h ****   * @retval Returned value can be one of the following values:
 296:Drivers/STM32F0xx_HAL_Driver/Inc/stm32f0xx_ll_gpio.h ****   *         @arg @ref LL_GPIO_MODE_INPUT
 297:Drivers/STM32F0xx_HAL_Driver/Inc/stm32f0xx_ll_gpio.h ****   *         @arg @ref LL_GPIO_MODE_OUTPUT
 298:Drivers/STM32F0xx_HAL_Driver/Inc/stm32f0xx_ll_gpio.h ****   *         @arg @ref LL_GPIO_MODE_ALTERNATE
 299:Drivers/STM32F0xx_HAL_Driver/Inc/stm32f0xx_ll_gpio.h ****   *         @arg @ref LL_GPIO_MODE_ANALOG
 300:Drivers/STM32F0xx_HAL_Driver/Inc/stm32f0xx_ll_gpio.h ****   */
 301:Drivers/STM32F0xx_HAL_Driver/Inc/stm32f0xx_ll_gpio.h **** __STATIC_INLINE uint32_t LL_GPIO_GetPinMode(GPIO_TypeDef *GPIOx, uint32_t Pin)
 302:Drivers/STM32F0xx_HAL_Driver/Inc/stm32f0xx_ll_gpio.h **** {
 303:Drivers/STM32F0xx_HAL_Driver/Inc/stm32f0xx_ll_gpio.h ****   return (uint32_t)(READ_BIT(GPIOx->MODER, ((Pin * Pin) * GPIO_MODER_MODER0)) / (Pin * Pin));
 304:Drivers/STM32F0xx_HAL_Driver/Inc/stm32f0xx_ll_gpio.h **** }
 305:Drivers/STM32F0xx_HAL_Driver/Inc/stm32f0xx_ll_gpio.h **** 
 306:Drivers/STM32F0xx_HAL_Driver/Inc/stm32f0xx_ll_gpio.h **** /**
 307:Drivers/STM32F0xx_HAL_Driver/Inc/stm32f0xx_ll_gpio.h ****   * @brief  Configure gpio output type for several pins on dedicated port.
 308:Drivers/STM32F0xx_HAL_Driver/Inc/stm32f0xx_ll_gpio.h ****   * @note   Output type as to be set when gpio pin is in output or
 309:Drivers/STM32F0xx_HAL_Driver/Inc/stm32f0xx_ll_gpio.h ****   *         alternate modes. Possible type are Push-pull or Open-drain.
 310:Drivers/STM32F0xx_HAL_Driver/Inc/stm32f0xx_ll_gpio.h ****   * @rmtoll OTYPER       OTy           LL_GPIO_SetPinOutputType
 311:Drivers/STM32F0xx_HAL_Driver/Inc/stm32f0xx_ll_gpio.h ****   * @param  GPIOx GPIO Port
 312:Drivers/STM32F0xx_HAL_Driver/Inc/stm32f0xx_ll_gpio.h ****   * @param  PinMask This parameter can be a combination of the following values:
 313:Drivers/STM32F0xx_HAL_Driver/Inc/stm32f0xx_ll_gpio.h ****   *         @arg @ref LL_GPIO_PIN_0
 314:Drivers/STM32F0xx_HAL_Driver/Inc/stm32f0xx_ll_gpio.h ****   *         @arg @ref LL_GPIO_PIN_1
 315:Drivers/STM32F0xx_HAL_Driver/Inc/stm32f0xx_ll_gpio.h ****   *         @arg @ref LL_GPIO_PIN_2
 316:Drivers/STM32F0xx_HAL_Driver/Inc/stm32f0xx_ll_gpio.h ****   *         @arg @ref LL_GPIO_PIN_3
 317:Drivers/STM32F0xx_HAL_Driver/Inc/stm32f0xx_ll_gpio.h ****   *         @arg @ref LL_GPIO_PIN_4
 318:Drivers/STM32F0xx_HAL_Driver/Inc/stm32f0xx_ll_gpio.h ****   *         @arg @ref LL_GPIO_PIN_5
 319:Drivers/STM32F0xx_HAL_Driver/Inc/stm32f0xx_ll_gpio.h ****   *         @arg @ref LL_GPIO_PIN_6
 320:Drivers/STM32F0xx_HAL_Driver/Inc/stm32f0xx_ll_gpio.h ****   *         @arg @ref LL_GPIO_PIN_7
 321:Drivers/STM32F0xx_HAL_Driver/Inc/stm32f0xx_ll_gpio.h ****   *         @arg @ref LL_GPIO_PIN_8
 322:Drivers/STM32F0xx_HAL_Driver/Inc/stm32f0xx_ll_gpio.h ****   *         @arg @ref LL_GPIO_PIN_9
 323:Drivers/STM32F0xx_HAL_Driver/Inc/stm32f0xx_ll_gpio.h ****   *         @arg @ref LL_GPIO_PIN_10
 324:Drivers/STM32F0xx_HAL_Driver/Inc/stm32f0xx_ll_gpio.h ****   *         @arg @ref LL_GPIO_PIN_11
 325:Drivers/STM32F0xx_HAL_Driver/Inc/stm32f0xx_ll_gpio.h ****   *         @arg @ref LL_GPIO_PIN_12
 326:Drivers/STM32F0xx_HAL_Driver/Inc/stm32f0xx_ll_gpio.h ****   *         @arg @ref LL_GPIO_PIN_13
 327:Drivers/STM32F0xx_HAL_Driver/Inc/stm32f0xx_ll_gpio.h ****   *         @arg @ref LL_GPIO_PIN_14
 328:Drivers/STM32F0xx_HAL_Driver/Inc/stm32f0xx_ll_gpio.h ****   *         @arg @ref LL_GPIO_PIN_15
 329:Drivers/STM32F0xx_HAL_Driver/Inc/stm32f0xx_ll_gpio.h ****   *         @arg @ref LL_GPIO_PIN_ALL
 330:Drivers/STM32F0xx_HAL_Driver/Inc/stm32f0xx_ll_gpio.h ****   * @param  OutputType This parameter can be one of the following values:
 331:Drivers/STM32F0xx_HAL_Driver/Inc/stm32f0xx_ll_gpio.h ****   *         @arg @ref LL_GPIO_OUTPUT_PUSHPULL
 332:Drivers/STM32F0xx_HAL_Driver/Inc/stm32f0xx_ll_gpio.h ****   *         @arg @ref LL_GPIO_OUTPUT_OPENDRAIN
 333:Drivers/STM32F0xx_HAL_Driver/Inc/stm32f0xx_ll_gpio.h ****   * @retval None
 334:Drivers/STM32F0xx_HAL_Driver/Inc/stm32f0xx_ll_gpio.h ****   */
 335:Drivers/STM32F0xx_HAL_Driver/Inc/stm32f0xx_ll_gpio.h **** __STATIC_INLINE void LL_GPIO_SetPinOutputType(GPIO_TypeDef *GPIOx, uint32_t PinMask, uint32_t Outpu
 336:Drivers/STM32F0xx_HAL_Driver/Inc/stm32f0xx_ll_gpio.h **** {
ARM GAS  C:\Users\vuyani\AppData\Local\Temp\ccwdY4Wa.s 			page 17


 337:Drivers/STM32F0xx_HAL_Driver/Inc/stm32f0xx_ll_gpio.h ****   MODIFY_REG(GPIOx->OTYPER, PinMask, (PinMask * OutputType));
 338:Drivers/STM32F0xx_HAL_Driver/Inc/stm32f0xx_ll_gpio.h **** }
 339:Drivers/STM32F0xx_HAL_Driver/Inc/stm32f0xx_ll_gpio.h **** 
 340:Drivers/STM32F0xx_HAL_Driver/Inc/stm32f0xx_ll_gpio.h **** /**
 341:Drivers/STM32F0xx_HAL_Driver/Inc/stm32f0xx_ll_gpio.h ****   * @brief  Return gpio output type for several pins on dedicated port.
 342:Drivers/STM32F0xx_HAL_Driver/Inc/stm32f0xx_ll_gpio.h ****   * @note   Output type as to be set when gpio pin is in output or
 343:Drivers/STM32F0xx_HAL_Driver/Inc/stm32f0xx_ll_gpio.h ****   *         alternate modes. Possible type are Push-pull or Open-drain.
 344:Drivers/STM32F0xx_HAL_Driver/Inc/stm32f0xx_ll_gpio.h ****   * @note   Warning: only one pin can be passed as parameter.
 345:Drivers/STM32F0xx_HAL_Driver/Inc/stm32f0xx_ll_gpio.h ****   * @rmtoll OTYPER       OTy           LL_GPIO_GetPinOutputType
 346:Drivers/STM32F0xx_HAL_Driver/Inc/stm32f0xx_ll_gpio.h ****   * @param  GPIOx GPIO Port
 347:Drivers/STM32F0xx_HAL_Driver/Inc/stm32f0xx_ll_gpio.h ****   * @param  Pin This parameter can be one of the following values:
 348:Drivers/STM32F0xx_HAL_Driver/Inc/stm32f0xx_ll_gpio.h ****   *         @arg @ref LL_GPIO_PIN_0
 349:Drivers/STM32F0xx_HAL_Driver/Inc/stm32f0xx_ll_gpio.h ****   *         @arg @ref LL_GPIO_PIN_1
 350:Drivers/STM32F0xx_HAL_Driver/Inc/stm32f0xx_ll_gpio.h ****   *         @arg @ref LL_GPIO_PIN_2
 351:Drivers/STM32F0xx_HAL_Driver/Inc/stm32f0xx_ll_gpio.h ****   *         @arg @ref LL_GPIO_PIN_3
 352:Drivers/STM32F0xx_HAL_Driver/Inc/stm32f0xx_ll_gpio.h ****   *         @arg @ref LL_GPIO_PIN_4
 353:Drivers/STM32F0xx_HAL_Driver/Inc/stm32f0xx_ll_gpio.h ****   *         @arg @ref LL_GPIO_PIN_5
 354:Drivers/STM32F0xx_HAL_Driver/Inc/stm32f0xx_ll_gpio.h ****   *         @arg @ref LL_GPIO_PIN_6
 355:Drivers/STM32F0xx_HAL_Driver/Inc/stm32f0xx_ll_gpio.h ****   *         @arg @ref LL_GPIO_PIN_7
 356:Drivers/STM32F0xx_HAL_Driver/Inc/stm32f0xx_ll_gpio.h ****   *         @arg @ref LL_GPIO_PIN_8
 357:Drivers/STM32F0xx_HAL_Driver/Inc/stm32f0xx_ll_gpio.h ****   *         @arg @ref LL_GPIO_PIN_9
 358:Drivers/STM32F0xx_HAL_Driver/Inc/stm32f0xx_ll_gpio.h ****   *         @arg @ref LL_GPIO_PIN_10
 359:Drivers/STM32F0xx_HAL_Driver/Inc/stm32f0xx_ll_gpio.h ****   *         @arg @ref LL_GPIO_PIN_11
 360:Drivers/STM32F0xx_HAL_Driver/Inc/stm32f0xx_ll_gpio.h ****   *         @arg @ref LL_GPIO_PIN_12
 361:Drivers/STM32F0xx_HAL_Driver/Inc/stm32f0xx_ll_gpio.h ****   *         @arg @ref LL_GPIO_PIN_13
 362:Drivers/STM32F0xx_HAL_Driver/Inc/stm32f0xx_ll_gpio.h ****   *         @arg @ref LL_GPIO_PIN_14
 363:Drivers/STM32F0xx_HAL_Driver/Inc/stm32f0xx_ll_gpio.h ****   *         @arg @ref LL_GPIO_PIN_15
 364:Drivers/STM32F0xx_HAL_Driver/Inc/stm32f0xx_ll_gpio.h ****   *         @arg @ref LL_GPIO_PIN_ALL
 365:Drivers/STM32F0xx_HAL_Driver/Inc/stm32f0xx_ll_gpio.h ****   * @retval Returned value can be one of the following values:
 366:Drivers/STM32F0xx_HAL_Driver/Inc/stm32f0xx_ll_gpio.h ****   *         @arg @ref LL_GPIO_OUTPUT_PUSHPULL
 367:Drivers/STM32F0xx_HAL_Driver/Inc/stm32f0xx_ll_gpio.h ****   *         @arg @ref LL_GPIO_OUTPUT_OPENDRAIN
 368:Drivers/STM32F0xx_HAL_Driver/Inc/stm32f0xx_ll_gpio.h ****   */
 369:Drivers/STM32F0xx_HAL_Driver/Inc/stm32f0xx_ll_gpio.h **** __STATIC_INLINE uint32_t LL_GPIO_GetPinOutputType(GPIO_TypeDef *GPIOx, uint32_t Pin)
 370:Drivers/STM32F0xx_HAL_Driver/Inc/stm32f0xx_ll_gpio.h **** {
 371:Drivers/STM32F0xx_HAL_Driver/Inc/stm32f0xx_ll_gpio.h ****   return (uint32_t)(READ_BIT(GPIOx->OTYPER, Pin) / Pin);
 372:Drivers/STM32F0xx_HAL_Driver/Inc/stm32f0xx_ll_gpio.h **** }
 373:Drivers/STM32F0xx_HAL_Driver/Inc/stm32f0xx_ll_gpio.h **** 
 374:Drivers/STM32F0xx_HAL_Driver/Inc/stm32f0xx_ll_gpio.h **** /**
 375:Drivers/STM32F0xx_HAL_Driver/Inc/stm32f0xx_ll_gpio.h ****   * @brief  Configure gpio speed for a dedicated pin on dedicated port.
 376:Drivers/STM32F0xx_HAL_Driver/Inc/stm32f0xx_ll_gpio.h ****   * @note   I/O speed can be Low, Medium, Fast or High speed.
 377:Drivers/STM32F0xx_HAL_Driver/Inc/stm32f0xx_ll_gpio.h ****   * @note   Warning: only one pin can be passed as parameter.
 378:Drivers/STM32F0xx_HAL_Driver/Inc/stm32f0xx_ll_gpio.h ****   * @note   Refer to datasheet for frequency specifications and the power
 379:Drivers/STM32F0xx_HAL_Driver/Inc/stm32f0xx_ll_gpio.h ****   *         supply and load conditions for each speed.
 380:Drivers/STM32F0xx_HAL_Driver/Inc/stm32f0xx_ll_gpio.h ****   * @rmtoll OSPEEDR      OSPEEDy       LL_GPIO_SetPinSpeed
 381:Drivers/STM32F0xx_HAL_Driver/Inc/stm32f0xx_ll_gpio.h ****   * @param  GPIOx GPIO Port
 382:Drivers/STM32F0xx_HAL_Driver/Inc/stm32f0xx_ll_gpio.h ****   * @param  Pin This parameter can be one of the following values:
 383:Drivers/STM32F0xx_HAL_Driver/Inc/stm32f0xx_ll_gpio.h ****   *         @arg @ref LL_GPIO_PIN_0
 384:Drivers/STM32F0xx_HAL_Driver/Inc/stm32f0xx_ll_gpio.h ****   *         @arg @ref LL_GPIO_PIN_1
 385:Drivers/STM32F0xx_HAL_Driver/Inc/stm32f0xx_ll_gpio.h ****   *         @arg @ref LL_GPIO_PIN_2
 386:Drivers/STM32F0xx_HAL_Driver/Inc/stm32f0xx_ll_gpio.h ****   *         @arg @ref LL_GPIO_PIN_3
 387:Drivers/STM32F0xx_HAL_Driver/Inc/stm32f0xx_ll_gpio.h ****   *         @arg @ref LL_GPIO_PIN_4
 388:Drivers/STM32F0xx_HAL_Driver/Inc/stm32f0xx_ll_gpio.h ****   *         @arg @ref LL_GPIO_PIN_5
 389:Drivers/STM32F0xx_HAL_Driver/Inc/stm32f0xx_ll_gpio.h ****   *         @arg @ref LL_GPIO_PIN_6
 390:Drivers/STM32F0xx_HAL_Driver/Inc/stm32f0xx_ll_gpio.h ****   *         @arg @ref LL_GPIO_PIN_7
 391:Drivers/STM32F0xx_HAL_Driver/Inc/stm32f0xx_ll_gpio.h ****   *         @arg @ref LL_GPIO_PIN_8
 392:Drivers/STM32F0xx_HAL_Driver/Inc/stm32f0xx_ll_gpio.h ****   *         @arg @ref LL_GPIO_PIN_9
 393:Drivers/STM32F0xx_HAL_Driver/Inc/stm32f0xx_ll_gpio.h ****   *         @arg @ref LL_GPIO_PIN_10
ARM GAS  C:\Users\vuyani\AppData\Local\Temp\ccwdY4Wa.s 			page 18


 394:Drivers/STM32F0xx_HAL_Driver/Inc/stm32f0xx_ll_gpio.h ****   *         @arg @ref LL_GPIO_PIN_11
 395:Drivers/STM32F0xx_HAL_Driver/Inc/stm32f0xx_ll_gpio.h ****   *         @arg @ref LL_GPIO_PIN_12
 396:Drivers/STM32F0xx_HAL_Driver/Inc/stm32f0xx_ll_gpio.h ****   *         @arg @ref LL_GPIO_PIN_13
 397:Drivers/STM32F0xx_HAL_Driver/Inc/stm32f0xx_ll_gpio.h ****   *         @arg @ref LL_GPIO_PIN_14
 398:Drivers/STM32F0xx_HAL_Driver/Inc/stm32f0xx_ll_gpio.h ****   *         @arg @ref LL_GPIO_PIN_15
 399:Drivers/STM32F0xx_HAL_Driver/Inc/stm32f0xx_ll_gpio.h ****   * @param  Speed This parameter can be one of the following values:
 400:Drivers/STM32F0xx_HAL_Driver/Inc/stm32f0xx_ll_gpio.h ****   *         @arg @ref LL_GPIO_SPEED_FREQ_LOW
 401:Drivers/STM32F0xx_HAL_Driver/Inc/stm32f0xx_ll_gpio.h ****   *         @arg @ref LL_GPIO_SPEED_FREQ_MEDIUM
 402:Drivers/STM32F0xx_HAL_Driver/Inc/stm32f0xx_ll_gpio.h ****   *         @arg @ref LL_GPIO_SPEED_FREQ_HIGH
 403:Drivers/STM32F0xx_HAL_Driver/Inc/stm32f0xx_ll_gpio.h ****   * @retval None
 404:Drivers/STM32F0xx_HAL_Driver/Inc/stm32f0xx_ll_gpio.h ****   */
 405:Drivers/STM32F0xx_HAL_Driver/Inc/stm32f0xx_ll_gpio.h **** __STATIC_INLINE void LL_GPIO_SetPinSpeed(GPIO_TypeDef *GPIOx, uint32_t Pin, uint32_t  Speed)
 406:Drivers/STM32F0xx_HAL_Driver/Inc/stm32f0xx_ll_gpio.h **** {
 407:Drivers/STM32F0xx_HAL_Driver/Inc/stm32f0xx_ll_gpio.h ****   MODIFY_REG(GPIOx->OSPEEDR, ((Pin * Pin) * GPIO_OSPEEDR_OSPEEDR0), ((Pin * Pin) * Speed));
 408:Drivers/STM32F0xx_HAL_Driver/Inc/stm32f0xx_ll_gpio.h **** }
 409:Drivers/STM32F0xx_HAL_Driver/Inc/stm32f0xx_ll_gpio.h **** 
 410:Drivers/STM32F0xx_HAL_Driver/Inc/stm32f0xx_ll_gpio.h **** /**
 411:Drivers/STM32F0xx_HAL_Driver/Inc/stm32f0xx_ll_gpio.h ****   * @brief  Return gpio speed for a dedicated pin on dedicated port.
 412:Drivers/STM32F0xx_HAL_Driver/Inc/stm32f0xx_ll_gpio.h ****   * @note   I/O speed can be Low, Medium, Fast or High speed.
 413:Drivers/STM32F0xx_HAL_Driver/Inc/stm32f0xx_ll_gpio.h ****   * @note   Warning: only one pin can be passed as parameter.
 414:Drivers/STM32F0xx_HAL_Driver/Inc/stm32f0xx_ll_gpio.h ****   * @note   Refer to datasheet for frequency specifications and the power
 415:Drivers/STM32F0xx_HAL_Driver/Inc/stm32f0xx_ll_gpio.h ****   *         supply and load conditions for each speed.
 416:Drivers/STM32F0xx_HAL_Driver/Inc/stm32f0xx_ll_gpio.h ****   * @rmtoll OSPEEDR      OSPEEDy       LL_GPIO_GetPinSpeed
 417:Drivers/STM32F0xx_HAL_Driver/Inc/stm32f0xx_ll_gpio.h ****   * @param  GPIOx GPIO Port
 418:Drivers/STM32F0xx_HAL_Driver/Inc/stm32f0xx_ll_gpio.h ****   * @param  Pin This parameter can be one of the following values:
 419:Drivers/STM32F0xx_HAL_Driver/Inc/stm32f0xx_ll_gpio.h ****   *         @arg @ref LL_GPIO_PIN_0
 420:Drivers/STM32F0xx_HAL_Driver/Inc/stm32f0xx_ll_gpio.h ****   *         @arg @ref LL_GPIO_PIN_1
 421:Drivers/STM32F0xx_HAL_Driver/Inc/stm32f0xx_ll_gpio.h ****   *         @arg @ref LL_GPIO_PIN_2
 422:Drivers/STM32F0xx_HAL_Driver/Inc/stm32f0xx_ll_gpio.h ****   *         @arg @ref LL_GPIO_PIN_3
 423:Drivers/STM32F0xx_HAL_Driver/Inc/stm32f0xx_ll_gpio.h ****   *         @arg @ref LL_GPIO_PIN_4
 424:Drivers/STM32F0xx_HAL_Driver/Inc/stm32f0xx_ll_gpio.h ****   *         @arg @ref LL_GPIO_PIN_5
 425:Drivers/STM32F0xx_HAL_Driver/Inc/stm32f0xx_ll_gpio.h ****   *         @arg @ref LL_GPIO_PIN_6
 426:Drivers/STM32F0xx_HAL_Driver/Inc/stm32f0xx_ll_gpio.h ****   *         @arg @ref LL_GPIO_PIN_7
 427:Drivers/STM32F0xx_HAL_Driver/Inc/stm32f0xx_ll_gpio.h ****   *         @arg @ref LL_GPIO_PIN_8
 428:Drivers/STM32F0xx_HAL_Driver/Inc/stm32f0xx_ll_gpio.h ****   *         @arg @ref LL_GPIO_PIN_9
 429:Drivers/STM32F0xx_HAL_Driver/Inc/stm32f0xx_ll_gpio.h ****   *         @arg @ref LL_GPIO_PIN_10
 430:Drivers/STM32F0xx_HAL_Driver/Inc/stm32f0xx_ll_gpio.h ****   *         @arg @ref LL_GPIO_PIN_11
 431:Drivers/STM32F0xx_HAL_Driver/Inc/stm32f0xx_ll_gpio.h ****   *         @arg @ref LL_GPIO_PIN_12
 432:Drivers/STM32F0xx_HAL_Driver/Inc/stm32f0xx_ll_gpio.h ****   *         @arg @ref LL_GPIO_PIN_13
 433:Drivers/STM32F0xx_HAL_Driver/Inc/stm32f0xx_ll_gpio.h ****   *         @arg @ref LL_GPIO_PIN_14
 434:Drivers/STM32F0xx_HAL_Driver/Inc/stm32f0xx_ll_gpio.h ****   *         @arg @ref LL_GPIO_PIN_15
 435:Drivers/STM32F0xx_HAL_Driver/Inc/stm32f0xx_ll_gpio.h ****   * @retval Returned value can be one of the following values:
 436:Drivers/STM32F0xx_HAL_Driver/Inc/stm32f0xx_ll_gpio.h ****   *         @arg @ref LL_GPIO_SPEED_FREQ_LOW
 437:Drivers/STM32F0xx_HAL_Driver/Inc/stm32f0xx_ll_gpio.h ****   *         @arg @ref LL_GPIO_SPEED_FREQ_MEDIUM
 438:Drivers/STM32F0xx_HAL_Driver/Inc/stm32f0xx_ll_gpio.h ****   *         @arg @ref LL_GPIO_SPEED_FREQ_HIGH
 439:Drivers/STM32F0xx_HAL_Driver/Inc/stm32f0xx_ll_gpio.h ****   */
 440:Drivers/STM32F0xx_HAL_Driver/Inc/stm32f0xx_ll_gpio.h **** __STATIC_INLINE uint32_t LL_GPIO_GetPinSpeed(GPIO_TypeDef *GPIOx, uint32_t Pin)
 441:Drivers/STM32F0xx_HAL_Driver/Inc/stm32f0xx_ll_gpio.h **** {
 442:Drivers/STM32F0xx_HAL_Driver/Inc/stm32f0xx_ll_gpio.h ****   return (uint32_t)(READ_BIT(GPIOx->OSPEEDR, ((Pin * Pin) * GPIO_OSPEEDR_OSPEEDR0)) / (Pin * Pin));
 443:Drivers/STM32F0xx_HAL_Driver/Inc/stm32f0xx_ll_gpio.h **** }
 444:Drivers/STM32F0xx_HAL_Driver/Inc/stm32f0xx_ll_gpio.h **** 
 445:Drivers/STM32F0xx_HAL_Driver/Inc/stm32f0xx_ll_gpio.h **** /**
 446:Drivers/STM32F0xx_HAL_Driver/Inc/stm32f0xx_ll_gpio.h ****   * @brief  Configure gpio pull-up or pull-down for a dedicated pin on a dedicated port.
 447:Drivers/STM32F0xx_HAL_Driver/Inc/stm32f0xx_ll_gpio.h ****   * @note   Warning: only one pin can be passed as parameter.
 448:Drivers/STM32F0xx_HAL_Driver/Inc/stm32f0xx_ll_gpio.h ****   * @rmtoll PUPDR        PUPDy         LL_GPIO_SetPinPull
 449:Drivers/STM32F0xx_HAL_Driver/Inc/stm32f0xx_ll_gpio.h ****   * @param  GPIOx GPIO Port
 450:Drivers/STM32F0xx_HAL_Driver/Inc/stm32f0xx_ll_gpio.h ****   * @param  Pin This parameter can be one of the following values:
ARM GAS  C:\Users\vuyani\AppData\Local\Temp\ccwdY4Wa.s 			page 19


 451:Drivers/STM32F0xx_HAL_Driver/Inc/stm32f0xx_ll_gpio.h ****   *         @arg @ref LL_GPIO_PIN_0
 452:Drivers/STM32F0xx_HAL_Driver/Inc/stm32f0xx_ll_gpio.h ****   *         @arg @ref LL_GPIO_PIN_1
 453:Drivers/STM32F0xx_HAL_Driver/Inc/stm32f0xx_ll_gpio.h ****   *         @arg @ref LL_GPIO_PIN_2
 454:Drivers/STM32F0xx_HAL_Driver/Inc/stm32f0xx_ll_gpio.h ****   *         @arg @ref LL_GPIO_PIN_3
 455:Drivers/STM32F0xx_HAL_Driver/Inc/stm32f0xx_ll_gpio.h ****   *         @arg @ref LL_GPIO_PIN_4
 456:Drivers/STM32F0xx_HAL_Driver/Inc/stm32f0xx_ll_gpio.h ****   *         @arg @ref LL_GPIO_PIN_5
 457:Drivers/STM32F0xx_HAL_Driver/Inc/stm32f0xx_ll_gpio.h ****   *         @arg @ref LL_GPIO_PIN_6
 458:Drivers/STM32F0xx_HAL_Driver/Inc/stm32f0xx_ll_gpio.h ****   *         @arg @ref LL_GPIO_PIN_7
 459:Drivers/STM32F0xx_HAL_Driver/Inc/stm32f0xx_ll_gpio.h ****   *         @arg @ref LL_GPIO_PIN_8
 460:Drivers/STM32F0xx_HAL_Driver/Inc/stm32f0xx_ll_gpio.h ****   *         @arg @ref LL_GPIO_PIN_9
 461:Drivers/STM32F0xx_HAL_Driver/Inc/stm32f0xx_ll_gpio.h ****   *         @arg @ref LL_GPIO_PIN_10
 462:Drivers/STM32F0xx_HAL_Driver/Inc/stm32f0xx_ll_gpio.h ****   *         @arg @ref LL_GPIO_PIN_11
 463:Drivers/STM32F0xx_HAL_Driver/Inc/stm32f0xx_ll_gpio.h ****   *         @arg @ref LL_GPIO_PIN_12
 464:Drivers/STM32F0xx_HAL_Driver/Inc/stm32f0xx_ll_gpio.h ****   *         @arg @ref LL_GPIO_PIN_13
 465:Drivers/STM32F0xx_HAL_Driver/Inc/stm32f0xx_ll_gpio.h ****   *         @arg @ref LL_GPIO_PIN_14
 466:Drivers/STM32F0xx_HAL_Driver/Inc/stm32f0xx_ll_gpio.h ****   *         @arg @ref LL_GPIO_PIN_15
 467:Drivers/STM32F0xx_HAL_Driver/Inc/stm32f0xx_ll_gpio.h ****   * @param  Pull This parameter can be one of the following values:
 468:Drivers/STM32F0xx_HAL_Driver/Inc/stm32f0xx_ll_gpio.h ****   *         @arg @ref LL_GPIO_PULL_NO
 469:Drivers/STM32F0xx_HAL_Driver/Inc/stm32f0xx_ll_gpio.h ****   *         @arg @ref LL_GPIO_PULL_UP
 470:Drivers/STM32F0xx_HAL_Driver/Inc/stm32f0xx_ll_gpio.h ****   *         @arg @ref LL_GPIO_PULL_DOWN
 471:Drivers/STM32F0xx_HAL_Driver/Inc/stm32f0xx_ll_gpio.h ****   * @retval None
 472:Drivers/STM32F0xx_HAL_Driver/Inc/stm32f0xx_ll_gpio.h ****   */
 473:Drivers/STM32F0xx_HAL_Driver/Inc/stm32f0xx_ll_gpio.h **** __STATIC_INLINE void LL_GPIO_SetPinPull(GPIO_TypeDef *GPIOx, uint32_t Pin, uint32_t Pull)
 474:Drivers/STM32F0xx_HAL_Driver/Inc/stm32f0xx_ll_gpio.h **** {
 475:Drivers/STM32F0xx_HAL_Driver/Inc/stm32f0xx_ll_gpio.h ****   MODIFY_REG(GPIOx->PUPDR, ((Pin * Pin) * GPIO_PUPDR_PUPDR0), ((Pin * Pin) * Pull));
 476:Drivers/STM32F0xx_HAL_Driver/Inc/stm32f0xx_ll_gpio.h **** }
 477:Drivers/STM32F0xx_HAL_Driver/Inc/stm32f0xx_ll_gpio.h **** 
 478:Drivers/STM32F0xx_HAL_Driver/Inc/stm32f0xx_ll_gpio.h **** /**
 479:Drivers/STM32F0xx_HAL_Driver/Inc/stm32f0xx_ll_gpio.h ****   * @brief  Return gpio pull-up or pull-down for a dedicated pin on a dedicated port
 480:Drivers/STM32F0xx_HAL_Driver/Inc/stm32f0xx_ll_gpio.h ****   * @note   Warning: only one pin can be passed as parameter.
 481:Drivers/STM32F0xx_HAL_Driver/Inc/stm32f0xx_ll_gpio.h ****   * @rmtoll PUPDR        PUPDy         LL_GPIO_GetPinPull
 482:Drivers/STM32F0xx_HAL_Driver/Inc/stm32f0xx_ll_gpio.h ****   * @param  GPIOx GPIO Port
 483:Drivers/STM32F0xx_HAL_Driver/Inc/stm32f0xx_ll_gpio.h ****   * @param  Pin This parameter can be one of the following values:
 484:Drivers/STM32F0xx_HAL_Driver/Inc/stm32f0xx_ll_gpio.h ****   *         @arg @ref LL_GPIO_PIN_0
 485:Drivers/STM32F0xx_HAL_Driver/Inc/stm32f0xx_ll_gpio.h ****   *         @arg @ref LL_GPIO_PIN_1
 486:Drivers/STM32F0xx_HAL_Driver/Inc/stm32f0xx_ll_gpio.h ****   *         @arg @ref LL_GPIO_PIN_2
 487:Drivers/STM32F0xx_HAL_Driver/Inc/stm32f0xx_ll_gpio.h ****   *         @arg @ref LL_GPIO_PIN_3
 488:Drivers/STM32F0xx_HAL_Driver/Inc/stm32f0xx_ll_gpio.h ****   *         @arg @ref LL_GPIO_PIN_4
 489:Drivers/STM32F0xx_HAL_Driver/Inc/stm32f0xx_ll_gpio.h ****   *         @arg @ref LL_GPIO_PIN_5
 490:Drivers/STM32F0xx_HAL_Driver/Inc/stm32f0xx_ll_gpio.h ****   *         @arg @ref LL_GPIO_PIN_6
 491:Drivers/STM32F0xx_HAL_Driver/Inc/stm32f0xx_ll_gpio.h ****   *         @arg @ref LL_GPIO_PIN_7
 492:Drivers/STM32F0xx_HAL_Driver/Inc/stm32f0xx_ll_gpio.h ****   *         @arg @ref LL_GPIO_PIN_8
 493:Drivers/STM32F0xx_HAL_Driver/Inc/stm32f0xx_ll_gpio.h ****   *         @arg @ref LL_GPIO_PIN_9
 494:Drivers/STM32F0xx_HAL_Driver/Inc/stm32f0xx_ll_gpio.h ****   *         @arg @ref LL_GPIO_PIN_10
 495:Drivers/STM32F0xx_HAL_Driver/Inc/stm32f0xx_ll_gpio.h ****   *         @arg @ref LL_GPIO_PIN_11
 496:Drivers/STM32F0xx_HAL_Driver/Inc/stm32f0xx_ll_gpio.h ****   *         @arg @ref LL_GPIO_PIN_12
 497:Drivers/STM32F0xx_HAL_Driver/Inc/stm32f0xx_ll_gpio.h ****   *         @arg @ref LL_GPIO_PIN_13
 498:Drivers/STM32F0xx_HAL_Driver/Inc/stm32f0xx_ll_gpio.h ****   *         @arg @ref LL_GPIO_PIN_14
 499:Drivers/STM32F0xx_HAL_Driver/Inc/stm32f0xx_ll_gpio.h ****   *         @arg @ref LL_GPIO_PIN_15
 500:Drivers/STM32F0xx_HAL_Driver/Inc/stm32f0xx_ll_gpio.h ****   * @retval Returned value can be one of the following values:
 501:Drivers/STM32F0xx_HAL_Driver/Inc/stm32f0xx_ll_gpio.h ****   *         @arg @ref LL_GPIO_PULL_NO
 502:Drivers/STM32F0xx_HAL_Driver/Inc/stm32f0xx_ll_gpio.h ****   *         @arg @ref LL_GPIO_PULL_UP
 503:Drivers/STM32F0xx_HAL_Driver/Inc/stm32f0xx_ll_gpio.h ****   *         @arg @ref LL_GPIO_PULL_DOWN
 504:Drivers/STM32F0xx_HAL_Driver/Inc/stm32f0xx_ll_gpio.h ****   */
 505:Drivers/STM32F0xx_HAL_Driver/Inc/stm32f0xx_ll_gpio.h **** __STATIC_INLINE uint32_t LL_GPIO_GetPinPull(GPIO_TypeDef *GPIOx, uint32_t Pin)
 506:Drivers/STM32F0xx_HAL_Driver/Inc/stm32f0xx_ll_gpio.h **** {
 507:Drivers/STM32F0xx_HAL_Driver/Inc/stm32f0xx_ll_gpio.h ****   return (uint32_t)(READ_BIT(GPIOx->PUPDR, ((Pin * Pin) * GPIO_PUPDR_PUPDR0)) / (Pin * Pin));
ARM GAS  C:\Users\vuyani\AppData\Local\Temp\ccwdY4Wa.s 			page 20


 508:Drivers/STM32F0xx_HAL_Driver/Inc/stm32f0xx_ll_gpio.h **** }
 509:Drivers/STM32F0xx_HAL_Driver/Inc/stm32f0xx_ll_gpio.h **** 
 510:Drivers/STM32F0xx_HAL_Driver/Inc/stm32f0xx_ll_gpio.h **** /**
 511:Drivers/STM32F0xx_HAL_Driver/Inc/stm32f0xx_ll_gpio.h ****   * @brief  Configure gpio alternate function of a dedicated pin from 0 to 7 for a dedicated port.
 512:Drivers/STM32F0xx_HAL_Driver/Inc/stm32f0xx_ll_gpio.h ****   * @note   Possible values are from AF0 to AF7 depending on target.
 513:Drivers/STM32F0xx_HAL_Driver/Inc/stm32f0xx_ll_gpio.h ****   * @note   Warning: only one pin can be passed as parameter.
 514:Drivers/STM32F0xx_HAL_Driver/Inc/stm32f0xx_ll_gpio.h ****   * @rmtoll AFRL         AFSELy        LL_GPIO_SetAFPin_0_7
 515:Drivers/STM32F0xx_HAL_Driver/Inc/stm32f0xx_ll_gpio.h ****   * @param  GPIOx GPIO Port
 516:Drivers/STM32F0xx_HAL_Driver/Inc/stm32f0xx_ll_gpio.h ****   * @param  Pin This parameter can be one of the following values:
 517:Drivers/STM32F0xx_HAL_Driver/Inc/stm32f0xx_ll_gpio.h ****   *         @arg @ref LL_GPIO_PIN_0
 518:Drivers/STM32F0xx_HAL_Driver/Inc/stm32f0xx_ll_gpio.h ****   *         @arg @ref LL_GPIO_PIN_1
 519:Drivers/STM32F0xx_HAL_Driver/Inc/stm32f0xx_ll_gpio.h ****   *         @arg @ref LL_GPIO_PIN_2
 520:Drivers/STM32F0xx_HAL_Driver/Inc/stm32f0xx_ll_gpio.h ****   *         @arg @ref LL_GPIO_PIN_3
 521:Drivers/STM32F0xx_HAL_Driver/Inc/stm32f0xx_ll_gpio.h ****   *         @arg @ref LL_GPIO_PIN_4
 522:Drivers/STM32F0xx_HAL_Driver/Inc/stm32f0xx_ll_gpio.h ****   *         @arg @ref LL_GPIO_PIN_5
 523:Drivers/STM32F0xx_HAL_Driver/Inc/stm32f0xx_ll_gpio.h ****   *         @arg @ref LL_GPIO_PIN_6
 524:Drivers/STM32F0xx_HAL_Driver/Inc/stm32f0xx_ll_gpio.h ****   *         @arg @ref LL_GPIO_PIN_7
 525:Drivers/STM32F0xx_HAL_Driver/Inc/stm32f0xx_ll_gpio.h ****   * @param  Alternate This parameter can be one of the following values:
 526:Drivers/STM32F0xx_HAL_Driver/Inc/stm32f0xx_ll_gpio.h ****   *         @arg @ref LL_GPIO_AF_0
 527:Drivers/STM32F0xx_HAL_Driver/Inc/stm32f0xx_ll_gpio.h ****   *         @arg @ref LL_GPIO_AF_1
 528:Drivers/STM32F0xx_HAL_Driver/Inc/stm32f0xx_ll_gpio.h ****   *         @arg @ref LL_GPIO_AF_2
 529:Drivers/STM32F0xx_HAL_Driver/Inc/stm32f0xx_ll_gpio.h ****   *         @arg @ref LL_GPIO_AF_3
 530:Drivers/STM32F0xx_HAL_Driver/Inc/stm32f0xx_ll_gpio.h ****   *         @arg @ref LL_GPIO_AF_4
 531:Drivers/STM32F0xx_HAL_Driver/Inc/stm32f0xx_ll_gpio.h ****   *         @arg @ref LL_GPIO_AF_5
 532:Drivers/STM32F0xx_HAL_Driver/Inc/stm32f0xx_ll_gpio.h ****   *         @arg @ref LL_GPIO_AF_6
 533:Drivers/STM32F0xx_HAL_Driver/Inc/stm32f0xx_ll_gpio.h ****   *         @arg @ref LL_GPIO_AF_7
 534:Drivers/STM32F0xx_HAL_Driver/Inc/stm32f0xx_ll_gpio.h ****   * @retval None
 535:Drivers/STM32F0xx_HAL_Driver/Inc/stm32f0xx_ll_gpio.h ****   */
 536:Drivers/STM32F0xx_HAL_Driver/Inc/stm32f0xx_ll_gpio.h **** __STATIC_INLINE void LL_GPIO_SetAFPin_0_7(GPIO_TypeDef *GPIOx, uint32_t Pin, uint32_t Alternate)
 537:Drivers/STM32F0xx_HAL_Driver/Inc/stm32f0xx_ll_gpio.h **** {
 538:Drivers/STM32F0xx_HAL_Driver/Inc/stm32f0xx_ll_gpio.h ****   MODIFY_REG(GPIOx->AFR[0], ((((Pin * Pin) * Pin) * Pin) * GPIO_AFRL_AFSEL0),
 539:Drivers/STM32F0xx_HAL_Driver/Inc/stm32f0xx_ll_gpio.h ****              ((((Pin * Pin) * Pin) * Pin) * Alternate));
 540:Drivers/STM32F0xx_HAL_Driver/Inc/stm32f0xx_ll_gpio.h **** }
 541:Drivers/STM32F0xx_HAL_Driver/Inc/stm32f0xx_ll_gpio.h **** 
 542:Drivers/STM32F0xx_HAL_Driver/Inc/stm32f0xx_ll_gpio.h **** /**
 543:Drivers/STM32F0xx_HAL_Driver/Inc/stm32f0xx_ll_gpio.h ****   * @brief  Return gpio alternate function of a dedicated pin from 0 to 7 for a dedicated port.
 544:Drivers/STM32F0xx_HAL_Driver/Inc/stm32f0xx_ll_gpio.h ****   * @rmtoll AFRL         AFSELy        LL_GPIO_GetAFPin_0_7
 545:Drivers/STM32F0xx_HAL_Driver/Inc/stm32f0xx_ll_gpio.h ****   * @param  GPIOx GPIO Port
 546:Drivers/STM32F0xx_HAL_Driver/Inc/stm32f0xx_ll_gpio.h ****   * @param  Pin This parameter can be one of the following values:
 547:Drivers/STM32F0xx_HAL_Driver/Inc/stm32f0xx_ll_gpio.h ****   *         @arg @ref LL_GPIO_PIN_0
 548:Drivers/STM32F0xx_HAL_Driver/Inc/stm32f0xx_ll_gpio.h ****   *         @arg @ref LL_GPIO_PIN_1
 549:Drivers/STM32F0xx_HAL_Driver/Inc/stm32f0xx_ll_gpio.h ****   *         @arg @ref LL_GPIO_PIN_2
 550:Drivers/STM32F0xx_HAL_Driver/Inc/stm32f0xx_ll_gpio.h ****   *         @arg @ref LL_GPIO_PIN_3
 551:Drivers/STM32F0xx_HAL_Driver/Inc/stm32f0xx_ll_gpio.h ****   *         @arg @ref LL_GPIO_PIN_4
 552:Drivers/STM32F0xx_HAL_Driver/Inc/stm32f0xx_ll_gpio.h ****   *         @arg @ref LL_GPIO_PIN_5
 553:Drivers/STM32F0xx_HAL_Driver/Inc/stm32f0xx_ll_gpio.h ****   *         @arg @ref LL_GPIO_PIN_6
 554:Drivers/STM32F0xx_HAL_Driver/Inc/stm32f0xx_ll_gpio.h ****   *         @arg @ref LL_GPIO_PIN_7
 555:Drivers/STM32F0xx_HAL_Driver/Inc/stm32f0xx_ll_gpio.h ****   * @retval Returned value can be one of the following values:
 556:Drivers/STM32F0xx_HAL_Driver/Inc/stm32f0xx_ll_gpio.h ****   *         @arg @ref LL_GPIO_AF_0
 557:Drivers/STM32F0xx_HAL_Driver/Inc/stm32f0xx_ll_gpio.h ****   *         @arg @ref LL_GPIO_AF_1
 558:Drivers/STM32F0xx_HAL_Driver/Inc/stm32f0xx_ll_gpio.h ****   *         @arg @ref LL_GPIO_AF_2
 559:Drivers/STM32F0xx_HAL_Driver/Inc/stm32f0xx_ll_gpio.h ****   *         @arg @ref LL_GPIO_AF_3
 560:Drivers/STM32F0xx_HAL_Driver/Inc/stm32f0xx_ll_gpio.h ****   *         @arg @ref LL_GPIO_AF_4
 561:Drivers/STM32F0xx_HAL_Driver/Inc/stm32f0xx_ll_gpio.h ****   *         @arg @ref LL_GPIO_AF_5
 562:Drivers/STM32F0xx_HAL_Driver/Inc/stm32f0xx_ll_gpio.h ****   *         @arg @ref LL_GPIO_AF_6
 563:Drivers/STM32F0xx_HAL_Driver/Inc/stm32f0xx_ll_gpio.h ****   *         @arg @ref LL_GPIO_AF_7
 564:Drivers/STM32F0xx_HAL_Driver/Inc/stm32f0xx_ll_gpio.h ****   */
ARM GAS  C:\Users\vuyani\AppData\Local\Temp\ccwdY4Wa.s 			page 21


 565:Drivers/STM32F0xx_HAL_Driver/Inc/stm32f0xx_ll_gpio.h **** __STATIC_INLINE uint32_t LL_GPIO_GetAFPin_0_7(GPIO_TypeDef *GPIOx, uint32_t Pin)
 566:Drivers/STM32F0xx_HAL_Driver/Inc/stm32f0xx_ll_gpio.h **** {
 567:Drivers/STM32F0xx_HAL_Driver/Inc/stm32f0xx_ll_gpio.h ****   return (uint32_t)(READ_BIT(GPIOx->AFR[0],
 568:Drivers/STM32F0xx_HAL_Driver/Inc/stm32f0xx_ll_gpio.h ****                              ((((Pin * Pin) * Pin) * Pin) * GPIO_AFRL_AFSEL0)) / (((Pin * Pin) * Pi
 569:Drivers/STM32F0xx_HAL_Driver/Inc/stm32f0xx_ll_gpio.h **** }
 570:Drivers/STM32F0xx_HAL_Driver/Inc/stm32f0xx_ll_gpio.h **** 
 571:Drivers/STM32F0xx_HAL_Driver/Inc/stm32f0xx_ll_gpio.h **** /**
 572:Drivers/STM32F0xx_HAL_Driver/Inc/stm32f0xx_ll_gpio.h ****   * @brief  Configure gpio alternate function of a dedicated pin from 8 to 15 for a dedicated port.
 573:Drivers/STM32F0xx_HAL_Driver/Inc/stm32f0xx_ll_gpio.h ****   * @note   Possible values are from AF0 to AF7 depending on target.
 574:Drivers/STM32F0xx_HAL_Driver/Inc/stm32f0xx_ll_gpio.h ****   * @note   Warning: only one pin can be passed as parameter.
 575:Drivers/STM32F0xx_HAL_Driver/Inc/stm32f0xx_ll_gpio.h ****   * @rmtoll AFRH         AFSELy        LL_GPIO_SetAFPin_8_15
 576:Drivers/STM32F0xx_HAL_Driver/Inc/stm32f0xx_ll_gpio.h ****   * @param  GPIOx GPIO Port
 577:Drivers/STM32F0xx_HAL_Driver/Inc/stm32f0xx_ll_gpio.h ****   * @param  Pin This parameter can be one of the following values:
 578:Drivers/STM32F0xx_HAL_Driver/Inc/stm32f0xx_ll_gpio.h ****   *         @arg @ref LL_GPIO_PIN_8
 579:Drivers/STM32F0xx_HAL_Driver/Inc/stm32f0xx_ll_gpio.h ****   *         @arg @ref LL_GPIO_PIN_9
 580:Drivers/STM32F0xx_HAL_Driver/Inc/stm32f0xx_ll_gpio.h ****   *         @arg @ref LL_GPIO_PIN_10
 581:Drivers/STM32F0xx_HAL_Driver/Inc/stm32f0xx_ll_gpio.h ****   *         @arg @ref LL_GPIO_PIN_11
 582:Drivers/STM32F0xx_HAL_Driver/Inc/stm32f0xx_ll_gpio.h ****   *         @arg @ref LL_GPIO_PIN_12
 583:Drivers/STM32F0xx_HAL_Driver/Inc/stm32f0xx_ll_gpio.h ****   *         @arg @ref LL_GPIO_PIN_13
 584:Drivers/STM32F0xx_HAL_Driver/Inc/stm32f0xx_ll_gpio.h ****   *         @arg @ref LL_GPIO_PIN_14
 585:Drivers/STM32F0xx_HAL_Driver/Inc/stm32f0xx_ll_gpio.h ****   *         @arg @ref LL_GPIO_PIN_15
 586:Drivers/STM32F0xx_HAL_Driver/Inc/stm32f0xx_ll_gpio.h ****   * @param  Alternate This parameter can be one of the following values:
 587:Drivers/STM32F0xx_HAL_Driver/Inc/stm32f0xx_ll_gpio.h ****   *         @arg @ref LL_GPIO_AF_0
 588:Drivers/STM32F0xx_HAL_Driver/Inc/stm32f0xx_ll_gpio.h ****   *         @arg @ref LL_GPIO_AF_1
 589:Drivers/STM32F0xx_HAL_Driver/Inc/stm32f0xx_ll_gpio.h ****   *         @arg @ref LL_GPIO_AF_2
 590:Drivers/STM32F0xx_HAL_Driver/Inc/stm32f0xx_ll_gpio.h ****   *         @arg @ref LL_GPIO_AF_3
 591:Drivers/STM32F0xx_HAL_Driver/Inc/stm32f0xx_ll_gpio.h ****   *         @arg @ref LL_GPIO_AF_4
 592:Drivers/STM32F0xx_HAL_Driver/Inc/stm32f0xx_ll_gpio.h ****   *         @arg @ref LL_GPIO_AF_5
 593:Drivers/STM32F0xx_HAL_Driver/Inc/stm32f0xx_ll_gpio.h ****   *         @arg @ref LL_GPIO_AF_6
 594:Drivers/STM32F0xx_HAL_Driver/Inc/stm32f0xx_ll_gpio.h ****   *         @arg @ref LL_GPIO_AF_7
 595:Drivers/STM32F0xx_HAL_Driver/Inc/stm32f0xx_ll_gpio.h ****   * @retval None
 596:Drivers/STM32F0xx_HAL_Driver/Inc/stm32f0xx_ll_gpio.h ****   */
 597:Drivers/STM32F0xx_HAL_Driver/Inc/stm32f0xx_ll_gpio.h **** __STATIC_INLINE void LL_GPIO_SetAFPin_8_15(GPIO_TypeDef *GPIOx, uint32_t Pin, uint32_t Alternate)
 598:Drivers/STM32F0xx_HAL_Driver/Inc/stm32f0xx_ll_gpio.h **** {
 599:Drivers/STM32F0xx_HAL_Driver/Inc/stm32f0xx_ll_gpio.h ****   MODIFY_REG(GPIOx->AFR[1], (((((Pin >> 8U) * (Pin >> 8U)) * (Pin >> 8U)) * (Pin >> 8U)) * GPIO_AFR
 600:Drivers/STM32F0xx_HAL_Driver/Inc/stm32f0xx_ll_gpio.h ****              (((((Pin >> 8U) * (Pin >> 8U)) * (Pin >> 8U)) * (Pin >> 8U)) * Alternate));
 601:Drivers/STM32F0xx_HAL_Driver/Inc/stm32f0xx_ll_gpio.h **** }
 602:Drivers/STM32F0xx_HAL_Driver/Inc/stm32f0xx_ll_gpio.h **** 
 603:Drivers/STM32F0xx_HAL_Driver/Inc/stm32f0xx_ll_gpio.h **** /**
 604:Drivers/STM32F0xx_HAL_Driver/Inc/stm32f0xx_ll_gpio.h ****   * @brief  Return gpio alternate function of a dedicated pin from 8 to 15 for a dedicated port.
 605:Drivers/STM32F0xx_HAL_Driver/Inc/stm32f0xx_ll_gpio.h ****   * @note   Possible values are from AF0 to AF7 depending on target.
 606:Drivers/STM32F0xx_HAL_Driver/Inc/stm32f0xx_ll_gpio.h ****   * @rmtoll AFRH         AFSELy        LL_GPIO_GetAFPin_8_15
 607:Drivers/STM32F0xx_HAL_Driver/Inc/stm32f0xx_ll_gpio.h ****   * @param  GPIOx GPIO Port
 608:Drivers/STM32F0xx_HAL_Driver/Inc/stm32f0xx_ll_gpio.h ****   * @param  Pin This parameter can be one of the following values:
 609:Drivers/STM32F0xx_HAL_Driver/Inc/stm32f0xx_ll_gpio.h ****   *         @arg @ref LL_GPIO_PIN_8
 610:Drivers/STM32F0xx_HAL_Driver/Inc/stm32f0xx_ll_gpio.h ****   *         @arg @ref LL_GPIO_PIN_9
 611:Drivers/STM32F0xx_HAL_Driver/Inc/stm32f0xx_ll_gpio.h ****   *         @arg @ref LL_GPIO_PIN_10
 612:Drivers/STM32F0xx_HAL_Driver/Inc/stm32f0xx_ll_gpio.h ****   *         @arg @ref LL_GPIO_PIN_11
 613:Drivers/STM32F0xx_HAL_Driver/Inc/stm32f0xx_ll_gpio.h ****   *         @arg @ref LL_GPIO_PIN_12
 614:Drivers/STM32F0xx_HAL_Driver/Inc/stm32f0xx_ll_gpio.h ****   *         @arg @ref LL_GPIO_PIN_13
 615:Drivers/STM32F0xx_HAL_Driver/Inc/stm32f0xx_ll_gpio.h ****   *         @arg @ref LL_GPIO_PIN_14
 616:Drivers/STM32F0xx_HAL_Driver/Inc/stm32f0xx_ll_gpio.h ****   *         @arg @ref LL_GPIO_PIN_15
 617:Drivers/STM32F0xx_HAL_Driver/Inc/stm32f0xx_ll_gpio.h ****   * @retval Returned value can be one of the following values:
 618:Drivers/STM32F0xx_HAL_Driver/Inc/stm32f0xx_ll_gpio.h ****   *         @arg @ref LL_GPIO_AF_0
 619:Drivers/STM32F0xx_HAL_Driver/Inc/stm32f0xx_ll_gpio.h ****   *         @arg @ref LL_GPIO_AF_1
 620:Drivers/STM32F0xx_HAL_Driver/Inc/stm32f0xx_ll_gpio.h ****   *         @arg @ref LL_GPIO_AF_2
 621:Drivers/STM32F0xx_HAL_Driver/Inc/stm32f0xx_ll_gpio.h ****   *         @arg @ref LL_GPIO_AF_3
ARM GAS  C:\Users\vuyani\AppData\Local\Temp\ccwdY4Wa.s 			page 22


 622:Drivers/STM32F0xx_HAL_Driver/Inc/stm32f0xx_ll_gpio.h ****   *         @arg @ref LL_GPIO_AF_4
 623:Drivers/STM32F0xx_HAL_Driver/Inc/stm32f0xx_ll_gpio.h ****   *         @arg @ref LL_GPIO_AF_5
 624:Drivers/STM32F0xx_HAL_Driver/Inc/stm32f0xx_ll_gpio.h ****   *         @arg @ref LL_GPIO_AF_6
 625:Drivers/STM32F0xx_HAL_Driver/Inc/stm32f0xx_ll_gpio.h ****   *         @arg @ref LL_GPIO_AF_7
 626:Drivers/STM32F0xx_HAL_Driver/Inc/stm32f0xx_ll_gpio.h ****   */
 627:Drivers/STM32F0xx_HAL_Driver/Inc/stm32f0xx_ll_gpio.h **** __STATIC_INLINE uint32_t LL_GPIO_GetAFPin_8_15(GPIO_TypeDef *GPIOx, uint32_t Pin)
 628:Drivers/STM32F0xx_HAL_Driver/Inc/stm32f0xx_ll_gpio.h **** {
 629:Drivers/STM32F0xx_HAL_Driver/Inc/stm32f0xx_ll_gpio.h ****   return (uint32_t)(READ_BIT(GPIOx->AFR[1],
 630:Drivers/STM32F0xx_HAL_Driver/Inc/stm32f0xx_ll_gpio.h ****                              (((((Pin >> 8U) * (Pin >> 8U)) * (Pin >> 8U)) * (Pin >> 8U)) * GPIO_AF
 631:Drivers/STM32F0xx_HAL_Driver/Inc/stm32f0xx_ll_gpio.h ****                                  (Pin >> 8U)) * (Pin >> 8U)) * (Pin >> 8U)));
 632:Drivers/STM32F0xx_HAL_Driver/Inc/stm32f0xx_ll_gpio.h **** }
 633:Drivers/STM32F0xx_HAL_Driver/Inc/stm32f0xx_ll_gpio.h **** 
 634:Drivers/STM32F0xx_HAL_Driver/Inc/stm32f0xx_ll_gpio.h **** 
 635:Drivers/STM32F0xx_HAL_Driver/Inc/stm32f0xx_ll_gpio.h **** /**
 636:Drivers/STM32F0xx_HAL_Driver/Inc/stm32f0xx_ll_gpio.h ****   * @brief  Lock configuration of several pins for a dedicated port.
 637:Drivers/STM32F0xx_HAL_Driver/Inc/stm32f0xx_ll_gpio.h ****   * @note   When the lock sequence has been applied on a port bit, the
 638:Drivers/STM32F0xx_HAL_Driver/Inc/stm32f0xx_ll_gpio.h ****   *         value of this port bit can no longer be modified until the
 639:Drivers/STM32F0xx_HAL_Driver/Inc/stm32f0xx_ll_gpio.h ****   *         next reset.
 640:Drivers/STM32F0xx_HAL_Driver/Inc/stm32f0xx_ll_gpio.h ****   * @note   Each lock bit freezes a specific configuration register
 641:Drivers/STM32F0xx_HAL_Driver/Inc/stm32f0xx_ll_gpio.h ****   *         (control and alternate function registers).
 642:Drivers/STM32F0xx_HAL_Driver/Inc/stm32f0xx_ll_gpio.h ****   * @rmtoll LCKR         LCKK          LL_GPIO_LockPin
 643:Drivers/STM32F0xx_HAL_Driver/Inc/stm32f0xx_ll_gpio.h ****   * @param  GPIOx GPIO Port
 644:Drivers/STM32F0xx_HAL_Driver/Inc/stm32f0xx_ll_gpio.h ****   * @param  PinMask This parameter can be a combination of the following values:
 645:Drivers/STM32F0xx_HAL_Driver/Inc/stm32f0xx_ll_gpio.h ****   *         @arg @ref LL_GPIO_PIN_0
 646:Drivers/STM32F0xx_HAL_Driver/Inc/stm32f0xx_ll_gpio.h ****   *         @arg @ref LL_GPIO_PIN_1
 647:Drivers/STM32F0xx_HAL_Driver/Inc/stm32f0xx_ll_gpio.h ****   *         @arg @ref LL_GPIO_PIN_2
 648:Drivers/STM32F0xx_HAL_Driver/Inc/stm32f0xx_ll_gpio.h ****   *         @arg @ref LL_GPIO_PIN_3
 649:Drivers/STM32F0xx_HAL_Driver/Inc/stm32f0xx_ll_gpio.h ****   *         @arg @ref LL_GPIO_PIN_4
 650:Drivers/STM32F0xx_HAL_Driver/Inc/stm32f0xx_ll_gpio.h ****   *         @arg @ref LL_GPIO_PIN_5
 651:Drivers/STM32F0xx_HAL_Driver/Inc/stm32f0xx_ll_gpio.h ****   *         @arg @ref LL_GPIO_PIN_6
 652:Drivers/STM32F0xx_HAL_Driver/Inc/stm32f0xx_ll_gpio.h ****   *         @arg @ref LL_GPIO_PIN_7
 653:Drivers/STM32F0xx_HAL_Driver/Inc/stm32f0xx_ll_gpio.h ****   *         @arg @ref LL_GPIO_PIN_8
 654:Drivers/STM32F0xx_HAL_Driver/Inc/stm32f0xx_ll_gpio.h ****   *         @arg @ref LL_GPIO_PIN_9
 655:Drivers/STM32F0xx_HAL_Driver/Inc/stm32f0xx_ll_gpio.h ****   *         @arg @ref LL_GPIO_PIN_10
 656:Drivers/STM32F0xx_HAL_Driver/Inc/stm32f0xx_ll_gpio.h ****   *         @arg @ref LL_GPIO_PIN_11
 657:Drivers/STM32F0xx_HAL_Driver/Inc/stm32f0xx_ll_gpio.h ****   *         @arg @ref LL_GPIO_PIN_12
 658:Drivers/STM32F0xx_HAL_Driver/Inc/stm32f0xx_ll_gpio.h ****   *         @arg @ref LL_GPIO_PIN_13
 659:Drivers/STM32F0xx_HAL_Driver/Inc/stm32f0xx_ll_gpio.h ****   *         @arg @ref LL_GPIO_PIN_14
 660:Drivers/STM32F0xx_HAL_Driver/Inc/stm32f0xx_ll_gpio.h ****   *         @arg @ref LL_GPIO_PIN_15
 661:Drivers/STM32F0xx_HAL_Driver/Inc/stm32f0xx_ll_gpio.h ****   *         @arg @ref LL_GPIO_PIN_ALL
 662:Drivers/STM32F0xx_HAL_Driver/Inc/stm32f0xx_ll_gpio.h ****   * @retval None
 663:Drivers/STM32F0xx_HAL_Driver/Inc/stm32f0xx_ll_gpio.h ****   */
 664:Drivers/STM32F0xx_HAL_Driver/Inc/stm32f0xx_ll_gpio.h **** __STATIC_INLINE void LL_GPIO_LockPin(GPIO_TypeDef *GPIOx, uint32_t PinMask)
 665:Drivers/STM32F0xx_HAL_Driver/Inc/stm32f0xx_ll_gpio.h **** {
 666:Drivers/STM32F0xx_HAL_Driver/Inc/stm32f0xx_ll_gpio.h ****   __IO uint32_t temp;
 667:Drivers/STM32F0xx_HAL_Driver/Inc/stm32f0xx_ll_gpio.h ****   WRITE_REG(GPIOx->LCKR, GPIO_LCKR_LCKK | PinMask);
 668:Drivers/STM32F0xx_HAL_Driver/Inc/stm32f0xx_ll_gpio.h ****   WRITE_REG(GPIOx->LCKR, PinMask);
 669:Drivers/STM32F0xx_HAL_Driver/Inc/stm32f0xx_ll_gpio.h ****   WRITE_REG(GPIOx->LCKR, GPIO_LCKR_LCKK | PinMask);
 670:Drivers/STM32F0xx_HAL_Driver/Inc/stm32f0xx_ll_gpio.h ****   temp = READ_REG(GPIOx->LCKR);
 671:Drivers/STM32F0xx_HAL_Driver/Inc/stm32f0xx_ll_gpio.h ****   (void) temp;
 672:Drivers/STM32F0xx_HAL_Driver/Inc/stm32f0xx_ll_gpio.h **** }
 673:Drivers/STM32F0xx_HAL_Driver/Inc/stm32f0xx_ll_gpio.h **** 
 674:Drivers/STM32F0xx_HAL_Driver/Inc/stm32f0xx_ll_gpio.h **** /**
 675:Drivers/STM32F0xx_HAL_Driver/Inc/stm32f0xx_ll_gpio.h ****   * @brief  Return 1 if all pins passed as parameter, of a dedicated port, are locked. else Return 
 676:Drivers/STM32F0xx_HAL_Driver/Inc/stm32f0xx_ll_gpio.h ****   * @rmtoll LCKR         LCKy          LL_GPIO_IsPinLocked
 677:Drivers/STM32F0xx_HAL_Driver/Inc/stm32f0xx_ll_gpio.h ****   * @param  GPIOx GPIO Port
 678:Drivers/STM32F0xx_HAL_Driver/Inc/stm32f0xx_ll_gpio.h ****   * @param  PinMask This parameter can be a combination of the following values:
ARM GAS  C:\Users\vuyani\AppData\Local\Temp\ccwdY4Wa.s 			page 23


 679:Drivers/STM32F0xx_HAL_Driver/Inc/stm32f0xx_ll_gpio.h ****   *         @arg @ref LL_GPIO_PIN_0
 680:Drivers/STM32F0xx_HAL_Driver/Inc/stm32f0xx_ll_gpio.h ****   *         @arg @ref LL_GPIO_PIN_1
 681:Drivers/STM32F0xx_HAL_Driver/Inc/stm32f0xx_ll_gpio.h ****   *         @arg @ref LL_GPIO_PIN_2
 682:Drivers/STM32F0xx_HAL_Driver/Inc/stm32f0xx_ll_gpio.h ****   *         @arg @ref LL_GPIO_PIN_3
 683:Drivers/STM32F0xx_HAL_Driver/Inc/stm32f0xx_ll_gpio.h ****   *         @arg @ref LL_GPIO_PIN_4
 684:Drivers/STM32F0xx_HAL_Driver/Inc/stm32f0xx_ll_gpio.h ****   *         @arg @ref LL_GPIO_PIN_5
 685:Drivers/STM32F0xx_HAL_Driver/Inc/stm32f0xx_ll_gpio.h ****   *         @arg @ref LL_GPIO_PIN_6
 686:Drivers/STM32F0xx_HAL_Driver/Inc/stm32f0xx_ll_gpio.h ****   *         @arg @ref LL_GPIO_PIN_7
 687:Drivers/STM32F0xx_HAL_Driver/Inc/stm32f0xx_ll_gpio.h ****   *         @arg @ref LL_GPIO_PIN_8
 688:Drivers/STM32F0xx_HAL_Driver/Inc/stm32f0xx_ll_gpio.h ****   *         @arg @ref LL_GPIO_PIN_9
 689:Drivers/STM32F0xx_HAL_Driver/Inc/stm32f0xx_ll_gpio.h ****   *         @arg @ref LL_GPIO_PIN_10
 690:Drivers/STM32F0xx_HAL_Driver/Inc/stm32f0xx_ll_gpio.h ****   *         @arg @ref LL_GPIO_PIN_11
 691:Drivers/STM32F0xx_HAL_Driver/Inc/stm32f0xx_ll_gpio.h ****   *         @arg @ref LL_GPIO_PIN_12
 692:Drivers/STM32F0xx_HAL_Driver/Inc/stm32f0xx_ll_gpio.h ****   *         @arg @ref LL_GPIO_PIN_13
 693:Drivers/STM32F0xx_HAL_Driver/Inc/stm32f0xx_ll_gpio.h ****   *         @arg @ref LL_GPIO_PIN_14
 694:Drivers/STM32F0xx_HAL_Driver/Inc/stm32f0xx_ll_gpio.h ****   *         @arg @ref LL_GPIO_PIN_15
 695:Drivers/STM32F0xx_HAL_Driver/Inc/stm32f0xx_ll_gpio.h ****   *         @arg @ref LL_GPIO_PIN_ALL
 696:Drivers/STM32F0xx_HAL_Driver/Inc/stm32f0xx_ll_gpio.h ****   * @retval State of bit (1 or 0).
 697:Drivers/STM32F0xx_HAL_Driver/Inc/stm32f0xx_ll_gpio.h ****   */
 698:Drivers/STM32F0xx_HAL_Driver/Inc/stm32f0xx_ll_gpio.h **** __STATIC_INLINE uint32_t LL_GPIO_IsPinLocked(GPIO_TypeDef *GPIOx, uint32_t PinMask)
 699:Drivers/STM32F0xx_HAL_Driver/Inc/stm32f0xx_ll_gpio.h **** {
 700:Drivers/STM32F0xx_HAL_Driver/Inc/stm32f0xx_ll_gpio.h ****   return (READ_BIT(GPIOx->LCKR, PinMask) == (PinMask));
 701:Drivers/STM32F0xx_HAL_Driver/Inc/stm32f0xx_ll_gpio.h **** }
 702:Drivers/STM32F0xx_HAL_Driver/Inc/stm32f0xx_ll_gpio.h **** 
 703:Drivers/STM32F0xx_HAL_Driver/Inc/stm32f0xx_ll_gpio.h **** /**
 704:Drivers/STM32F0xx_HAL_Driver/Inc/stm32f0xx_ll_gpio.h ****   * @brief  Return 1 if one of the pin of a dedicated port is locked. else return 0.
 705:Drivers/STM32F0xx_HAL_Driver/Inc/stm32f0xx_ll_gpio.h ****   * @rmtoll LCKR         LCKK          LL_GPIO_IsAnyPinLocked
 706:Drivers/STM32F0xx_HAL_Driver/Inc/stm32f0xx_ll_gpio.h ****   * @param  GPIOx GPIO Port
 707:Drivers/STM32F0xx_HAL_Driver/Inc/stm32f0xx_ll_gpio.h ****   * @retval State of bit (1 or 0).
 708:Drivers/STM32F0xx_HAL_Driver/Inc/stm32f0xx_ll_gpio.h ****   */
 709:Drivers/STM32F0xx_HAL_Driver/Inc/stm32f0xx_ll_gpio.h **** __STATIC_INLINE uint32_t LL_GPIO_IsAnyPinLocked(GPIO_TypeDef *GPIOx)
 710:Drivers/STM32F0xx_HAL_Driver/Inc/stm32f0xx_ll_gpio.h **** {
 711:Drivers/STM32F0xx_HAL_Driver/Inc/stm32f0xx_ll_gpio.h ****   return (READ_BIT(GPIOx->LCKR, GPIO_LCKR_LCKK) == (GPIO_LCKR_LCKK));
 712:Drivers/STM32F0xx_HAL_Driver/Inc/stm32f0xx_ll_gpio.h **** }
 713:Drivers/STM32F0xx_HAL_Driver/Inc/stm32f0xx_ll_gpio.h **** 
 714:Drivers/STM32F0xx_HAL_Driver/Inc/stm32f0xx_ll_gpio.h **** /**
 715:Drivers/STM32F0xx_HAL_Driver/Inc/stm32f0xx_ll_gpio.h ****   * @}
 716:Drivers/STM32F0xx_HAL_Driver/Inc/stm32f0xx_ll_gpio.h ****   */
 717:Drivers/STM32F0xx_HAL_Driver/Inc/stm32f0xx_ll_gpio.h **** 
 718:Drivers/STM32F0xx_HAL_Driver/Inc/stm32f0xx_ll_gpio.h **** /** @defgroup GPIO_LL_EF_Data_Access Data Access
 719:Drivers/STM32F0xx_HAL_Driver/Inc/stm32f0xx_ll_gpio.h ****   * @{
 720:Drivers/STM32F0xx_HAL_Driver/Inc/stm32f0xx_ll_gpio.h ****   */
 721:Drivers/STM32F0xx_HAL_Driver/Inc/stm32f0xx_ll_gpio.h **** 
 722:Drivers/STM32F0xx_HAL_Driver/Inc/stm32f0xx_ll_gpio.h **** /**
 723:Drivers/STM32F0xx_HAL_Driver/Inc/stm32f0xx_ll_gpio.h ****   * @brief  Return full input data register value for a dedicated port.
 724:Drivers/STM32F0xx_HAL_Driver/Inc/stm32f0xx_ll_gpio.h ****   * @rmtoll IDR          IDy           LL_GPIO_ReadInputPort
 725:Drivers/STM32F0xx_HAL_Driver/Inc/stm32f0xx_ll_gpio.h ****   * @param  GPIOx GPIO Port
 726:Drivers/STM32F0xx_HAL_Driver/Inc/stm32f0xx_ll_gpio.h ****   * @retval Input data register value of port
 727:Drivers/STM32F0xx_HAL_Driver/Inc/stm32f0xx_ll_gpio.h ****   */
 728:Drivers/STM32F0xx_HAL_Driver/Inc/stm32f0xx_ll_gpio.h **** __STATIC_INLINE uint32_t LL_GPIO_ReadInputPort(GPIO_TypeDef *GPIOx)
 729:Drivers/STM32F0xx_HAL_Driver/Inc/stm32f0xx_ll_gpio.h **** {
 730:Drivers/STM32F0xx_HAL_Driver/Inc/stm32f0xx_ll_gpio.h ****   return (uint32_t)(READ_REG(GPIOx->IDR));
 731:Drivers/STM32F0xx_HAL_Driver/Inc/stm32f0xx_ll_gpio.h **** }
 732:Drivers/STM32F0xx_HAL_Driver/Inc/stm32f0xx_ll_gpio.h **** 
 733:Drivers/STM32F0xx_HAL_Driver/Inc/stm32f0xx_ll_gpio.h **** /**
 734:Drivers/STM32F0xx_HAL_Driver/Inc/stm32f0xx_ll_gpio.h ****   * @brief  Return if input data level for several pins of dedicated port is high or low.
 735:Drivers/STM32F0xx_HAL_Driver/Inc/stm32f0xx_ll_gpio.h ****   * @rmtoll IDR          IDy           LL_GPIO_IsInputPinSet
ARM GAS  C:\Users\vuyani\AppData\Local\Temp\ccwdY4Wa.s 			page 24


 736:Drivers/STM32F0xx_HAL_Driver/Inc/stm32f0xx_ll_gpio.h ****   * @param  GPIOx GPIO Port
 737:Drivers/STM32F0xx_HAL_Driver/Inc/stm32f0xx_ll_gpio.h ****   * @param  PinMask This parameter can be a combination of the following values:
 738:Drivers/STM32F0xx_HAL_Driver/Inc/stm32f0xx_ll_gpio.h ****   *         @arg @ref LL_GPIO_PIN_0
 739:Drivers/STM32F0xx_HAL_Driver/Inc/stm32f0xx_ll_gpio.h ****   *         @arg @ref LL_GPIO_PIN_1
 740:Drivers/STM32F0xx_HAL_Driver/Inc/stm32f0xx_ll_gpio.h ****   *         @arg @ref LL_GPIO_PIN_2
 741:Drivers/STM32F0xx_HAL_Driver/Inc/stm32f0xx_ll_gpio.h ****   *         @arg @ref LL_GPIO_PIN_3
 742:Drivers/STM32F0xx_HAL_Driver/Inc/stm32f0xx_ll_gpio.h ****   *         @arg @ref LL_GPIO_PIN_4
 743:Drivers/STM32F0xx_HAL_Driver/Inc/stm32f0xx_ll_gpio.h ****   *         @arg @ref LL_GPIO_PIN_5
 744:Drivers/STM32F0xx_HAL_Driver/Inc/stm32f0xx_ll_gpio.h ****   *         @arg @ref LL_GPIO_PIN_6
 745:Drivers/STM32F0xx_HAL_Driver/Inc/stm32f0xx_ll_gpio.h ****   *         @arg @ref LL_GPIO_PIN_7
 746:Drivers/STM32F0xx_HAL_Driver/Inc/stm32f0xx_ll_gpio.h ****   *         @arg @ref LL_GPIO_PIN_8
 747:Drivers/STM32F0xx_HAL_Driver/Inc/stm32f0xx_ll_gpio.h ****   *         @arg @ref LL_GPIO_PIN_9
 748:Drivers/STM32F0xx_HAL_Driver/Inc/stm32f0xx_ll_gpio.h ****   *         @arg @ref LL_GPIO_PIN_10
 749:Drivers/STM32F0xx_HAL_Driver/Inc/stm32f0xx_ll_gpio.h ****   *         @arg @ref LL_GPIO_PIN_11
 750:Drivers/STM32F0xx_HAL_Driver/Inc/stm32f0xx_ll_gpio.h ****   *         @arg @ref LL_GPIO_PIN_12
 751:Drivers/STM32F0xx_HAL_Driver/Inc/stm32f0xx_ll_gpio.h ****   *         @arg @ref LL_GPIO_PIN_13
 752:Drivers/STM32F0xx_HAL_Driver/Inc/stm32f0xx_ll_gpio.h ****   *         @arg @ref LL_GPIO_PIN_14
 753:Drivers/STM32F0xx_HAL_Driver/Inc/stm32f0xx_ll_gpio.h ****   *         @arg @ref LL_GPIO_PIN_15
 754:Drivers/STM32F0xx_HAL_Driver/Inc/stm32f0xx_ll_gpio.h ****   *         @arg @ref LL_GPIO_PIN_ALL
 755:Drivers/STM32F0xx_HAL_Driver/Inc/stm32f0xx_ll_gpio.h ****   * @retval State of bit (1 or 0).
 756:Drivers/STM32F0xx_HAL_Driver/Inc/stm32f0xx_ll_gpio.h ****   */
 757:Drivers/STM32F0xx_HAL_Driver/Inc/stm32f0xx_ll_gpio.h **** __STATIC_INLINE uint32_t LL_GPIO_IsInputPinSet(GPIO_TypeDef *GPIOx, uint32_t PinMask)
 758:Drivers/STM32F0xx_HAL_Driver/Inc/stm32f0xx_ll_gpio.h **** {
 759:Drivers/STM32F0xx_HAL_Driver/Inc/stm32f0xx_ll_gpio.h ****   return (READ_BIT(GPIOx->IDR, PinMask) == (PinMask));
 760:Drivers/STM32F0xx_HAL_Driver/Inc/stm32f0xx_ll_gpio.h **** }
 761:Drivers/STM32F0xx_HAL_Driver/Inc/stm32f0xx_ll_gpio.h **** 
 762:Drivers/STM32F0xx_HAL_Driver/Inc/stm32f0xx_ll_gpio.h **** /**
 763:Drivers/STM32F0xx_HAL_Driver/Inc/stm32f0xx_ll_gpio.h ****   * @brief  Write output data register for the port.
 764:Drivers/STM32F0xx_HAL_Driver/Inc/stm32f0xx_ll_gpio.h ****   * @rmtoll ODR          ODy           LL_GPIO_WriteOutputPort
 765:Drivers/STM32F0xx_HAL_Driver/Inc/stm32f0xx_ll_gpio.h ****   * @param  GPIOx GPIO Port
 766:Drivers/STM32F0xx_HAL_Driver/Inc/stm32f0xx_ll_gpio.h ****   * @param  PortValue Level value for each pin of the port
 767:Drivers/STM32F0xx_HAL_Driver/Inc/stm32f0xx_ll_gpio.h ****   * @retval None
 768:Drivers/STM32F0xx_HAL_Driver/Inc/stm32f0xx_ll_gpio.h ****   */
 769:Drivers/STM32F0xx_HAL_Driver/Inc/stm32f0xx_ll_gpio.h **** __STATIC_INLINE void LL_GPIO_WriteOutputPort(GPIO_TypeDef *GPIOx, uint32_t PortValue)
 770:Drivers/STM32F0xx_HAL_Driver/Inc/stm32f0xx_ll_gpio.h **** {
 771:Drivers/STM32F0xx_HAL_Driver/Inc/stm32f0xx_ll_gpio.h ****   WRITE_REG(GPIOx->ODR, PortValue);
 772:Drivers/STM32F0xx_HAL_Driver/Inc/stm32f0xx_ll_gpio.h **** }
 773:Drivers/STM32F0xx_HAL_Driver/Inc/stm32f0xx_ll_gpio.h **** 
 774:Drivers/STM32F0xx_HAL_Driver/Inc/stm32f0xx_ll_gpio.h **** /**
 775:Drivers/STM32F0xx_HAL_Driver/Inc/stm32f0xx_ll_gpio.h ****   * @brief  Return full output data register value for a dedicated port.
 776:Drivers/STM32F0xx_HAL_Driver/Inc/stm32f0xx_ll_gpio.h ****   * @rmtoll ODR          ODy           LL_GPIO_ReadOutputPort
 777:Drivers/STM32F0xx_HAL_Driver/Inc/stm32f0xx_ll_gpio.h ****   * @param  GPIOx GPIO Port
 778:Drivers/STM32F0xx_HAL_Driver/Inc/stm32f0xx_ll_gpio.h ****   * @retval Output data register value of port
 779:Drivers/STM32F0xx_HAL_Driver/Inc/stm32f0xx_ll_gpio.h ****   */
 780:Drivers/STM32F0xx_HAL_Driver/Inc/stm32f0xx_ll_gpio.h **** __STATIC_INLINE uint32_t LL_GPIO_ReadOutputPort(GPIO_TypeDef *GPIOx)
 781:Drivers/STM32F0xx_HAL_Driver/Inc/stm32f0xx_ll_gpio.h **** {
 782:Drivers/STM32F0xx_HAL_Driver/Inc/stm32f0xx_ll_gpio.h ****   return (uint32_t)(READ_REG(GPIOx->ODR));
 783:Drivers/STM32F0xx_HAL_Driver/Inc/stm32f0xx_ll_gpio.h **** }
 784:Drivers/STM32F0xx_HAL_Driver/Inc/stm32f0xx_ll_gpio.h **** 
 785:Drivers/STM32F0xx_HAL_Driver/Inc/stm32f0xx_ll_gpio.h **** /**
 786:Drivers/STM32F0xx_HAL_Driver/Inc/stm32f0xx_ll_gpio.h ****   * @brief  Return if input data level for several pins of dedicated port is high or low.
 787:Drivers/STM32F0xx_HAL_Driver/Inc/stm32f0xx_ll_gpio.h ****   * @rmtoll ODR          ODy           LL_GPIO_IsOutputPinSet
 788:Drivers/STM32F0xx_HAL_Driver/Inc/stm32f0xx_ll_gpio.h ****   * @param  GPIOx GPIO Port
 789:Drivers/STM32F0xx_HAL_Driver/Inc/stm32f0xx_ll_gpio.h ****   * @param  PinMask This parameter can be a combination of the following values:
 790:Drivers/STM32F0xx_HAL_Driver/Inc/stm32f0xx_ll_gpio.h ****   *         @arg @ref LL_GPIO_PIN_0
 791:Drivers/STM32F0xx_HAL_Driver/Inc/stm32f0xx_ll_gpio.h ****   *         @arg @ref LL_GPIO_PIN_1
 792:Drivers/STM32F0xx_HAL_Driver/Inc/stm32f0xx_ll_gpio.h ****   *         @arg @ref LL_GPIO_PIN_2
ARM GAS  C:\Users\vuyani\AppData\Local\Temp\ccwdY4Wa.s 			page 25


 793:Drivers/STM32F0xx_HAL_Driver/Inc/stm32f0xx_ll_gpio.h ****   *         @arg @ref LL_GPIO_PIN_3
 794:Drivers/STM32F0xx_HAL_Driver/Inc/stm32f0xx_ll_gpio.h ****   *         @arg @ref LL_GPIO_PIN_4
 795:Drivers/STM32F0xx_HAL_Driver/Inc/stm32f0xx_ll_gpio.h ****   *         @arg @ref LL_GPIO_PIN_5
 796:Drivers/STM32F0xx_HAL_Driver/Inc/stm32f0xx_ll_gpio.h ****   *         @arg @ref LL_GPIO_PIN_6
 797:Drivers/STM32F0xx_HAL_Driver/Inc/stm32f0xx_ll_gpio.h ****   *         @arg @ref LL_GPIO_PIN_7
 798:Drivers/STM32F0xx_HAL_Driver/Inc/stm32f0xx_ll_gpio.h ****   *         @arg @ref LL_GPIO_PIN_8
 799:Drivers/STM32F0xx_HAL_Driver/Inc/stm32f0xx_ll_gpio.h ****   *         @arg @ref LL_GPIO_PIN_9
 800:Drivers/STM32F0xx_HAL_Driver/Inc/stm32f0xx_ll_gpio.h ****   *         @arg @ref LL_GPIO_PIN_10
 801:Drivers/STM32F0xx_HAL_Driver/Inc/stm32f0xx_ll_gpio.h ****   *         @arg @ref LL_GPIO_PIN_11
 802:Drivers/STM32F0xx_HAL_Driver/Inc/stm32f0xx_ll_gpio.h ****   *         @arg @ref LL_GPIO_PIN_12
 803:Drivers/STM32F0xx_HAL_Driver/Inc/stm32f0xx_ll_gpio.h ****   *         @arg @ref LL_GPIO_PIN_13
 804:Drivers/STM32F0xx_HAL_Driver/Inc/stm32f0xx_ll_gpio.h ****   *         @arg @ref LL_GPIO_PIN_14
 805:Drivers/STM32F0xx_HAL_Driver/Inc/stm32f0xx_ll_gpio.h ****   *         @arg @ref LL_GPIO_PIN_15
 806:Drivers/STM32F0xx_HAL_Driver/Inc/stm32f0xx_ll_gpio.h ****   *         @arg @ref LL_GPIO_PIN_ALL
 807:Drivers/STM32F0xx_HAL_Driver/Inc/stm32f0xx_ll_gpio.h ****   * @retval State of bit (1 or 0).
 808:Drivers/STM32F0xx_HAL_Driver/Inc/stm32f0xx_ll_gpio.h ****   */
 809:Drivers/STM32F0xx_HAL_Driver/Inc/stm32f0xx_ll_gpio.h **** __STATIC_INLINE uint32_t LL_GPIO_IsOutputPinSet(GPIO_TypeDef *GPIOx, uint32_t PinMask)
 810:Drivers/STM32F0xx_HAL_Driver/Inc/stm32f0xx_ll_gpio.h **** {
 811:Drivers/STM32F0xx_HAL_Driver/Inc/stm32f0xx_ll_gpio.h ****   return (READ_BIT(GPIOx->ODR, PinMask) == (PinMask));
 812:Drivers/STM32F0xx_HAL_Driver/Inc/stm32f0xx_ll_gpio.h **** }
 813:Drivers/STM32F0xx_HAL_Driver/Inc/stm32f0xx_ll_gpio.h **** 
 814:Drivers/STM32F0xx_HAL_Driver/Inc/stm32f0xx_ll_gpio.h **** /**
 815:Drivers/STM32F0xx_HAL_Driver/Inc/stm32f0xx_ll_gpio.h ****   * @brief  Set several pins to high level on dedicated gpio port.
 816:Drivers/STM32F0xx_HAL_Driver/Inc/stm32f0xx_ll_gpio.h ****   * @rmtoll BSRR         BSy           LL_GPIO_SetOutputPin
 817:Drivers/STM32F0xx_HAL_Driver/Inc/stm32f0xx_ll_gpio.h ****   * @param  GPIOx GPIO Port
 818:Drivers/STM32F0xx_HAL_Driver/Inc/stm32f0xx_ll_gpio.h ****   * @param  PinMask This parameter can be a combination of the following values:
 819:Drivers/STM32F0xx_HAL_Driver/Inc/stm32f0xx_ll_gpio.h ****   *         @arg @ref LL_GPIO_PIN_0
 820:Drivers/STM32F0xx_HAL_Driver/Inc/stm32f0xx_ll_gpio.h ****   *         @arg @ref LL_GPIO_PIN_1
 821:Drivers/STM32F0xx_HAL_Driver/Inc/stm32f0xx_ll_gpio.h ****   *         @arg @ref LL_GPIO_PIN_2
 822:Drivers/STM32F0xx_HAL_Driver/Inc/stm32f0xx_ll_gpio.h ****   *         @arg @ref LL_GPIO_PIN_3
 823:Drivers/STM32F0xx_HAL_Driver/Inc/stm32f0xx_ll_gpio.h ****   *         @arg @ref LL_GPIO_PIN_4
 824:Drivers/STM32F0xx_HAL_Driver/Inc/stm32f0xx_ll_gpio.h ****   *         @arg @ref LL_GPIO_PIN_5
 825:Drivers/STM32F0xx_HAL_Driver/Inc/stm32f0xx_ll_gpio.h ****   *         @arg @ref LL_GPIO_PIN_6
 826:Drivers/STM32F0xx_HAL_Driver/Inc/stm32f0xx_ll_gpio.h ****   *         @arg @ref LL_GPIO_PIN_7
 827:Drivers/STM32F0xx_HAL_Driver/Inc/stm32f0xx_ll_gpio.h ****   *         @arg @ref LL_GPIO_PIN_8
 828:Drivers/STM32F0xx_HAL_Driver/Inc/stm32f0xx_ll_gpio.h ****   *         @arg @ref LL_GPIO_PIN_9
 829:Drivers/STM32F0xx_HAL_Driver/Inc/stm32f0xx_ll_gpio.h ****   *         @arg @ref LL_GPIO_PIN_10
 830:Drivers/STM32F0xx_HAL_Driver/Inc/stm32f0xx_ll_gpio.h ****   *         @arg @ref LL_GPIO_PIN_11
 831:Drivers/STM32F0xx_HAL_Driver/Inc/stm32f0xx_ll_gpio.h ****   *         @arg @ref LL_GPIO_PIN_12
 832:Drivers/STM32F0xx_HAL_Driver/Inc/stm32f0xx_ll_gpio.h ****   *         @arg @ref LL_GPIO_PIN_13
 833:Drivers/STM32F0xx_HAL_Driver/Inc/stm32f0xx_ll_gpio.h ****   *         @arg @ref LL_GPIO_PIN_14
 834:Drivers/STM32F0xx_HAL_Driver/Inc/stm32f0xx_ll_gpio.h ****   *         @arg @ref LL_GPIO_PIN_15
 835:Drivers/STM32F0xx_HAL_Driver/Inc/stm32f0xx_ll_gpio.h ****   *         @arg @ref LL_GPIO_PIN_ALL
 836:Drivers/STM32F0xx_HAL_Driver/Inc/stm32f0xx_ll_gpio.h ****   * @retval None
 837:Drivers/STM32F0xx_HAL_Driver/Inc/stm32f0xx_ll_gpio.h ****   */
 838:Drivers/STM32F0xx_HAL_Driver/Inc/stm32f0xx_ll_gpio.h **** __STATIC_INLINE void LL_GPIO_SetOutputPin(GPIO_TypeDef *GPIOx, uint32_t PinMask)
 839:Drivers/STM32F0xx_HAL_Driver/Inc/stm32f0xx_ll_gpio.h **** {
 840:Drivers/STM32F0xx_HAL_Driver/Inc/stm32f0xx_ll_gpio.h ****   WRITE_REG(GPIOx->BSRR, PinMask);
 841:Drivers/STM32F0xx_HAL_Driver/Inc/stm32f0xx_ll_gpio.h **** }
 842:Drivers/STM32F0xx_HAL_Driver/Inc/stm32f0xx_ll_gpio.h **** 
 843:Drivers/STM32F0xx_HAL_Driver/Inc/stm32f0xx_ll_gpio.h **** /**
 844:Drivers/STM32F0xx_HAL_Driver/Inc/stm32f0xx_ll_gpio.h ****   * @brief  Set several pins to low level on dedicated gpio port.
 845:Drivers/STM32F0xx_HAL_Driver/Inc/stm32f0xx_ll_gpio.h ****   * @rmtoll BRR          BRy           LL_GPIO_ResetOutputPin
 846:Drivers/STM32F0xx_HAL_Driver/Inc/stm32f0xx_ll_gpio.h ****   * @param  GPIOx GPIO Port
 847:Drivers/STM32F0xx_HAL_Driver/Inc/stm32f0xx_ll_gpio.h ****   * @param  PinMask This parameter can be a combination of the following values:
 848:Drivers/STM32F0xx_HAL_Driver/Inc/stm32f0xx_ll_gpio.h ****   *         @arg @ref LL_GPIO_PIN_0
 849:Drivers/STM32F0xx_HAL_Driver/Inc/stm32f0xx_ll_gpio.h ****   *         @arg @ref LL_GPIO_PIN_1
ARM GAS  C:\Users\vuyani\AppData\Local\Temp\ccwdY4Wa.s 			page 26


 850:Drivers/STM32F0xx_HAL_Driver/Inc/stm32f0xx_ll_gpio.h ****   *         @arg @ref LL_GPIO_PIN_2
 851:Drivers/STM32F0xx_HAL_Driver/Inc/stm32f0xx_ll_gpio.h ****   *         @arg @ref LL_GPIO_PIN_3
 852:Drivers/STM32F0xx_HAL_Driver/Inc/stm32f0xx_ll_gpio.h ****   *         @arg @ref LL_GPIO_PIN_4
 853:Drivers/STM32F0xx_HAL_Driver/Inc/stm32f0xx_ll_gpio.h ****   *         @arg @ref LL_GPIO_PIN_5
 854:Drivers/STM32F0xx_HAL_Driver/Inc/stm32f0xx_ll_gpio.h ****   *         @arg @ref LL_GPIO_PIN_6
 855:Drivers/STM32F0xx_HAL_Driver/Inc/stm32f0xx_ll_gpio.h ****   *         @arg @ref LL_GPIO_PIN_7
 856:Drivers/STM32F0xx_HAL_Driver/Inc/stm32f0xx_ll_gpio.h ****   *         @arg @ref LL_GPIO_PIN_8
 857:Drivers/STM32F0xx_HAL_Driver/Inc/stm32f0xx_ll_gpio.h ****   *         @arg @ref LL_GPIO_PIN_9
 858:Drivers/STM32F0xx_HAL_Driver/Inc/stm32f0xx_ll_gpio.h ****   *         @arg @ref LL_GPIO_PIN_10
 859:Drivers/STM32F0xx_HAL_Driver/Inc/stm32f0xx_ll_gpio.h ****   *         @arg @ref LL_GPIO_PIN_11
 860:Drivers/STM32F0xx_HAL_Driver/Inc/stm32f0xx_ll_gpio.h ****   *         @arg @ref LL_GPIO_PIN_12
 861:Drivers/STM32F0xx_HAL_Driver/Inc/stm32f0xx_ll_gpio.h ****   *         @arg @ref LL_GPIO_PIN_13
 862:Drivers/STM32F0xx_HAL_Driver/Inc/stm32f0xx_ll_gpio.h ****   *         @arg @ref LL_GPIO_PIN_14
 863:Drivers/STM32F0xx_HAL_Driver/Inc/stm32f0xx_ll_gpio.h ****   *         @arg @ref LL_GPIO_PIN_15
 864:Drivers/STM32F0xx_HAL_Driver/Inc/stm32f0xx_ll_gpio.h ****   *         @arg @ref LL_GPIO_PIN_ALL
 865:Drivers/STM32F0xx_HAL_Driver/Inc/stm32f0xx_ll_gpio.h ****   * @retval None
 866:Drivers/STM32F0xx_HAL_Driver/Inc/stm32f0xx_ll_gpio.h ****   */
 867:Drivers/STM32F0xx_HAL_Driver/Inc/stm32f0xx_ll_gpio.h **** __STATIC_INLINE void LL_GPIO_ResetOutputPin(GPIO_TypeDef *GPIOx, uint32_t PinMask)
 137              		.loc 3 867 22 view .LVU31
 138              	.LBB53:
 868:Drivers/STM32F0xx_HAL_Driver/Inc/stm32f0xx_ll_gpio.h **** {
 869:Drivers/STM32F0xx_HAL_Driver/Inc/stm32f0xx_ll_gpio.h ****   WRITE_REG(GPIOx->BRR, PinMask);
 139              		.loc 3 869 3 view .LVU32
 140 0050 504D     		ldr	r5, .L2+4
 141 0052 0126     		movs	r6, #1
 142 0054 AE62     		str	r6, [r5, #40]
 143              	.LVL4:
 144              		.loc 3 869 3 is_stmt 0 view .LVU33
 145              	.LBE53:
 146              	.LBE52:
 199:Core/Src/main.c **** 
 200:Core/Src/main.c ****   /**/
 201:Core/Src/main.c ****   LL_GPIO_ResetOutputPin(LED1_GPIO_Port, LED1_Pin);
 147              		.loc 1 201 3 is_stmt 1 view .LVU34
 148              	.LBB54:
 149              	.LBI54:
 867:Drivers/STM32F0xx_HAL_Driver/Inc/stm32f0xx_ll_gpio.h **** {
 150              		.loc 3 867 22 view .LVU35
 151              	.LBB55:
 152              		.loc 3 869 3 view .LVU36
 153 0056 0223     		movs	r3, #2
 154 0058 9A46     		mov	r10, r3
 155 005a AB62     		str	r3, [r5, #40]
 156              	.LVL5:
 157              		.loc 3 869 3 is_stmt 0 view .LVU37
 158              	.LBE55:
 159              	.LBE54:
 202:Core/Src/main.c **** 
 203:Core/Src/main.c ****   /**/
 204:Core/Src/main.c ****   LL_GPIO_ResetOutputPin(LED2_GPIO_Port, LED2_Pin);
 160              		.loc 1 204 3 is_stmt 1 view .LVU38
 161              	.LBB56:
 162              	.LBI56:
 867:Drivers/STM32F0xx_HAL_Driver/Inc/stm32f0xx_ll_gpio.h **** {
 163              		.loc 3 867 22 view .LVU39
 164              	.LBB57:
 165              		.loc 3 869 3 view .LVU40
ARM GAS  C:\Users\vuyani\AppData\Local\Temp\ccwdY4Wa.s 			page 27


 166 005c 0233     		adds	r3, r3, #2
 167 005e 9946     		mov	r9, r3
 168 0060 AB62     		str	r3, [r5, #40]
 169              	.LVL6:
 170              		.loc 3 869 3 is_stmt 0 view .LVU41
 171              	.LBE57:
 172              	.LBE56:
 205:Core/Src/main.c **** 
 206:Core/Src/main.c ****   /**/
 207:Core/Src/main.c ****   LL_GPIO_ResetOutputPin(LED3_GPIO_Port, LED3_Pin);
 173              		.loc 1 207 3 is_stmt 1 view .LVU42
 174              	.LBB58:
 175              	.LBI58:
 867:Drivers/STM32F0xx_HAL_Driver/Inc/stm32f0xx_ll_gpio.h **** {
 176              		.loc 3 867 22 view .LVU43
 177              	.LBB59:
 178              		.loc 3 869 3 view .LVU44
 179 0062 0433     		adds	r3, r3, #4
 180 0064 9846     		mov	r8, r3
 181 0066 AB62     		str	r3, [r5, #40]
 182              	.LVL7:
 183              		.loc 3 869 3 is_stmt 0 view .LVU45
 184              	.LBE59:
 185              	.LBE58:
 208:Core/Src/main.c **** 
 209:Core/Src/main.c ****   /**/
 210:Core/Src/main.c ****   LL_GPIO_ResetOutputPin(LED4_GPIO_Port, LED4_Pin);
 186              		.loc 1 210 3 is_stmt 1 view .LVU46
 187              	.LBB60:
 188              	.LBI60:
 867:Drivers/STM32F0xx_HAL_Driver/Inc/stm32f0xx_ll_gpio.h **** {
 189              		.loc 3 867 22 view .LVU47
 190              	.LBB61:
 191              		.loc 3 869 3 view .LVU48
 192 0068 0833     		adds	r3, r3, #8
 193 006a 9B46     		mov	fp, r3
 194 006c AB62     		str	r3, [r5, #40]
 195              	.LVL8:
 196              		.loc 3 869 3 is_stmt 0 view .LVU49
 197              	.LBE61:
 198              	.LBE60:
 211:Core/Src/main.c **** 
 212:Core/Src/main.c ****   /**/
 213:Core/Src/main.c ****   LL_GPIO_ResetOutputPin(LED5_GPIO_Port, LED5_Pin);
 199              		.loc 1 213 3 is_stmt 1 view .LVU50
 200              	.LBB62:
 201              	.LBI62:
 867:Drivers/STM32F0xx_HAL_Driver/Inc/stm32f0xx_ll_gpio.h **** {
 202              		.loc 3 867 22 view .LVU51
 203              	.LBB63:
 204              		.loc 3 869 3 view .LVU52
 205 006e 1033     		adds	r3, r3, #16
 206 0070 AB62     		str	r3, [r5, #40]
 207              	.LVL9:
 208              		.loc 3 869 3 is_stmt 0 view .LVU53
 209              	.LBE63:
 210              	.LBE62:
ARM GAS  C:\Users\vuyani\AppData\Local\Temp\ccwdY4Wa.s 			page 28


 214:Core/Src/main.c **** 
 215:Core/Src/main.c ****   /**/
 216:Core/Src/main.c ****   LL_GPIO_ResetOutputPin(LED6_GPIO_Port, LED6_Pin);
 211              		.loc 1 216 3 is_stmt 1 view .LVU54
 212              	.LBB64:
 213              	.LBI64:
 867:Drivers/STM32F0xx_HAL_Driver/Inc/stm32f0xx_ll_gpio.h **** {
 214              		.loc 3 867 22 view .LVU55
 215              	.LBB65:
 216              		.loc 3 869 3 view .LVU56
 217 0072 4022     		movs	r2, #64
 218 0074 AA62     		str	r2, [r5, #40]
 219              	.LVL10:
 220              		.loc 3 869 3 is_stmt 0 view .LVU57
 221              	.LBE65:
 222              	.LBE64:
 217:Core/Src/main.c **** 
 218:Core/Src/main.c ****   /**/
 219:Core/Src/main.c ****   LL_GPIO_ResetOutputPin(LED7_GPIO_Port, LED7_Pin);
 223              		.loc 1 219 3 is_stmt 1 view .LVU58
 224              	.LBB66:
 225              	.LBI66:
 867:Drivers/STM32F0xx_HAL_Driver/Inc/stm32f0xx_ll_gpio.h **** {
 226              		.loc 3 867 22 view .LVU59
 227              	.LBB67:
 228              		.loc 3 869 3 view .LVU60
 229 0076 8021     		movs	r1, #128
 230 0078 A962     		str	r1, [r5, #40]
 231              	.LVL11:
 232              		.loc 3 869 3 is_stmt 0 view .LVU61
 233              	.LBE67:
 234              	.LBE66:
 220:Core/Src/main.c **** 
 221:Core/Src/main.c ****   /**/
 222:Core/Src/main.c ****   GPIO_InitStruct.Pin = Button0_Pin;
 235              		.loc 1 222 3 is_stmt 1 view .LVU62
 236              		.loc 1 222 23 is_stmt 0 view .LVU63
 237 007a 0496     		str	r6, [sp, #16]
 223:Core/Src/main.c ****   GPIO_InitStruct.Mode = LL_GPIO_MODE_INPUT;
 238              		.loc 1 223 3 is_stmt 1 view .LVU64
 224:Core/Src/main.c ****   GPIO_InitStruct.Pull = LL_GPIO_PULL_UP;
 239              		.loc 1 224 3 view .LVU65
 240              		.loc 1 224 24 is_stmt 0 view .LVU66
 241 007c 0896     		str	r6, [sp, #32]
 225:Core/Src/main.c ****   LL_GPIO_Init(Button0_GPIO_Port, &GPIO_InitStruct);
 242              		.loc 1 225 3 is_stmt 1 view .LVU67
 243 007e 9027     		movs	r7, #144
 244 0080 FF05     		lsls	r7, r7, #23
 245 0082 04A8     		add	r0, sp, #16
 246 0084 0100     		movs	r1, r0
 247 0086 3800     		movs	r0, r7
 248 0088 FFF7FEFF 		bl	LL_GPIO_Init
 249              	.LVL12:
 226:Core/Src/main.c **** 
 227:Core/Src/main.c ****   /**/
 228:Core/Src/main.c ****   GPIO_InitStruct.Pin = Button1_Pin;
 250              		.loc 1 228 3 view .LVU68
ARM GAS  C:\Users\vuyani\AppData\Local\Temp\ccwdY4Wa.s 			page 29


 251              		.loc 1 228 23 is_stmt 0 view .LVU69
 252 008c 5046     		mov	r0, r10
 253 008e 0490     		str	r0, [sp, #16]
 229:Core/Src/main.c ****   GPIO_InitStruct.Mode = LL_GPIO_MODE_INPUT;
 254              		.loc 1 229 3 is_stmt 1 view .LVU70
 255              		.loc 1 229 24 is_stmt 0 view .LVU71
 256 0090 0024     		movs	r4, #0
 257 0092 0594     		str	r4, [sp, #20]
 230:Core/Src/main.c ****   GPIO_InitStruct.Pull = LL_GPIO_PULL_UP;
 258              		.loc 1 230 3 is_stmt 1 view .LVU72
 259              		.loc 1 230 24 is_stmt 0 view .LVU73
 260 0094 0896     		str	r6, [sp, #32]
 231:Core/Src/main.c ****   LL_GPIO_Init(Button1_GPIO_Port, &GPIO_InitStruct);
 261              		.loc 1 231 3 is_stmt 1 view .LVU74
 262 0096 04A8     		add	r0, sp, #16
 263 0098 0100     		movs	r1, r0
 264 009a 3800     		movs	r0, r7
 265 009c FFF7FEFF 		bl	LL_GPIO_Init
 266              	.LVL13:
 232:Core/Src/main.c **** 
 233:Core/Src/main.c ****   /**/
 234:Core/Src/main.c ****   GPIO_InitStruct.Pin = Button2_Pin;
 267              		.loc 1 234 3 view .LVU75
 268              		.loc 1 234 23 is_stmt 0 view .LVU76
 269 00a0 4846     		mov	r0, r9
 270 00a2 0490     		str	r0, [sp, #16]
 235:Core/Src/main.c ****   GPIO_InitStruct.Mode = LL_GPIO_MODE_INPUT;
 271              		.loc 1 235 3 is_stmt 1 view .LVU77
 272              		.loc 1 235 24 is_stmt 0 view .LVU78
 273 00a4 0594     		str	r4, [sp, #20]
 236:Core/Src/main.c ****   GPIO_InitStruct.Pull = LL_GPIO_PULL_UP;
 274              		.loc 1 236 3 is_stmt 1 view .LVU79
 275              		.loc 1 236 24 is_stmt 0 view .LVU80
 276 00a6 0896     		str	r6, [sp, #32]
 237:Core/Src/main.c ****   LL_GPIO_Init(Button2_GPIO_Port, &GPIO_InitStruct);
 277              		.loc 1 237 3 is_stmt 1 view .LVU81
 278 00a8 04A8     		add	r0, sp, #16
 279 00aa 0100     		movs	r1, r0
 280 00ac 3800     		movs	r0, r7
 281 00ae FFF7FEFF 		bl	LL_GPIO_Init
 282              	.LVL14:
 238:Core/Src/main.c **** 
 239:Core/Src/main.c ****   /**/
 240:Core/Src/main.c ****   GPIO_InitStruct.Pin = Button3_Pin;
 283              		.loc 1 240 3 view .LVU82
 284              		.loc 1 240 23 is_stmt 0 view .LVU83
 285 00b2 4046     		mov	r0, r8
 286 00b4 0490     		str	r0, [sp, #16]
 241:Core/Src/main.c ****   GPIO_InitStruct.Mode = LL_GPIO_MODE_INPUT;
 287              		.loc 1 241 3 is_stmt 1 view .LVU84
 288              		.loc 1 241 24 is_stmt 0 view .LVU85
 289 00b6 0594     		str	r4, [sp, #20]
 242:Core/Src/main.c ****   GPIO_InitStruct.Pull = LL_GPIO_PULL_UP;
 290              		.loc 1 242 3 is_stmt 1 view .LVU86
 291              		.loc 1 242 24 is_stmt 0 view .LVU87
 292 00b8 0896     		str	r6, [sp, #32]
 243:Core/Src/main.c ****   LL_GPIO_Init(Button3_GPIO_Port, &GPIO_InitStruct);
ARM GAS  C:\Users\vuyani\AppData\Local\Temp\ccwdY4Wa.s 			page 30


 293              		.loc 1 243 3 is_stmt 1 view .LVU88
 294 00ba 04A8     		add	r0, sp, #16
 295 00bc 0100     		movs	r1, r0
 296 00be 3800     		movs	r0, r7
 297 00c0 FFF7FEFF 		bl	LL_GPIO_Init
 298              	.LVL15:
 244:Core/Src/main.c **** 
 245:Core/Src/main.c ****   /**/
 246:Core/Src/main.c ****   GPIO_InitStruct.Pin = LED0_Pin;
 299              		.loc 1 246 3 view .LVU89
 300              		.loc 1 246 23 is_stmt 0 view .LVU90
 301 00c4 0496     		str	r6, [sp, #16]
 247:Core/Src/main.c ****   GPIO_InitStruct.Mode = LL_GPIO_MODE_OUTPUT;
 302              		.loc 1 247 3 is_stmt 1 view .LVU91
 303              		.loc 1 247 24 is_stmt 0 view .LVU92
 304 00c6 0596     		str	r6, [sp, #20]
 248:Core/Src/main.c ****   GPIO_InitStruct.Speed = LL_GPIO_SPEED_FREQ_LOW;
 305              		.loc 1 248 3 is_stmt 1 view .LVU93
 306              		.loc 1 248 25 is_stmt 0 view .LVU94
 307 00c8 0694     		str	r4, [sp, #24]
 249:Core/Src/main.c ****   GPIO_InitStruct.OutputType = LL_GPIO_OUTPUT_PUSHPULL;
 308              		.loc 1 249 3 is_stmt 1 view .LVU95
 309              		.loc 1 249 30 is_stmt 0 view .LVU96
 310 00ca 0794     		str	r4, [sp, #28]
 250:Core/Src/main.c ****   GPIO_InitStruct.Pull = LL_GPIO_PULL_NO;
 311              		.loc 1 250 3 is_stmt 1 view .LVU97
 312              		.loc 1 250 24 is_stmt 0 view .LVU98
 313 00cc 0894     		str	r4, [sp, #32]
 251:Core/Src/main.c ****   LL_GPIO_Init(LED0_GPIO_Port, &GPIO_InitStruct);
 314              		.loc 1 251 3 is_stmt 1 view .LVU99
 315 00ce 04A8     		add	r0, sp, #16
 316 00d0 0100     		movs	r1, r0
 317 00d2 2800     		movs	r0, r5
 318 00d4 FFF7FEFF 		bl	LL_GPIO_Init
 319              	.LVL16:
 252:Core/Src/main.c **** 
 253:Core/Src/main.c ****   /**/
 254:Core/Src/main.c ****   GPIO_InitStruct.Pin = LED1_Pin;
 320              		.loc 1 254 3 view .LVU100
 321              		.loc 1 254 23 is_stmt 0 view .LVU101
 322 00d8 5046     		mov	r0, r10
 323 00da 0490     		str	r0, [sp, #16]
 255:Core/Src/main.c ****   GPIO_InitStruct.Mode = LL_GPIO_MODE_OUTPUT;
 324              		.loc 1 255 3 is_stmt 1 view .LVU102
 325              		.loc 1 255 24 is_stmt 0 view .LVU103
 326 00dc 0596     		str	r6, [sp, #20]
 256:Core/Src/main.c ****   GPIO_InitStruct.Speed = LL_GPIO_SPEED_FREQ_LOW;
 327              		.loc 1 256 3 is_stmt 1 view .LVU104
 328              		.loc 1 256 25 is_stmt 0 view .LVU105
 329 00de 0694     		str	r4, [sp, #24]
 257:Core/Src/main.c ****   GPIO_InitStruct.OutputType = LL_GPIO_OUTPUT_PUSHPULL;
 330              		.loc 1 257 3 is_stmt 1 view .LVU106
 331              		.loc 1 257 30 is_stmt 0 view .LVU107
 332 00e0 0794     		str	r4, [sp, #28]
 258:Core/Src/main.c ****   GPIO_InitStruct.Pull = LL_GPIO_PULL_NO;
 333              		.loc 1 258 3 is_stmt 1 view .LVU108
 334              		.loc 1 258 24 is_stmt 0 view .LVU109
ARM GAS  C:\Users\vuyani\AppData\Local\Temp\ccwdY4Wa.s 			page 31


 335 00e2 0894     		str	r4, [sp, #32]
 259:Core/Src/main.c ****   LL_GPIO_Init(LED1_GPIO_Port, &GPIO_InitStruct);
 336              		.loc 1 259 3 is_stmt 1 view .LVU110
 337 00e4 04A8     		add	r0, sp, #16
 338 00e6 0100     		movs	r1, r0
 339 00e8 2800     		movs	r0, r5
 340 00ea FFF7FEFF 		bl	LL_GPIO_Init
 341              	.LVL17:
 260:Core/Src/main.c **** 
 261:Core/Src/main.c ****   /**/
 262:Core/Src/main.c ****   GPIO_InitStruct.Pin = LED2_Pin;
 342              		.loc 1 262 3 view .LVU111
 343              		.loc 1 262 23 is_stmt 0 view .LVU112
 344 00ee 4846     		mov	r0, r9
 345 00f0 0490     		str	r0, [sp, #16]
 263:Core/Src/main.c ****   GPIO_InitStruct.Mode = LL_GPIO_MODE_OUTPUT;
 346              		.loc 1 263 3 is_stmt 1 view .LVU113
 347              		.loc 1 263 24 is_stmt 0 view .LVU114
 348 00f2 0596     		str	r6, [sp, #20]
 264:Core/Src/main.c ****   GPIO_InitStruct.Speed = LL_GPIO_SPEED_FREQ_LOW;
 349              		.loc 1 264 3 is_stmt 1 view .LVU115
 350              		.loc 1 264 25 is_stmt 0 view .LVU116
 351 00f4 0694     		str	r4, [sp, #24]
 265:Core/Src/main.c ****   GPIO_InitStruct.OutputType = LL_GPIO_OUTPUT_PUSHPULL;
 352              		.loc 1 265 3 is_stmt 1 view .LVU117
 353              		.loc 1 265 30 is_stmt 0 view .LVU118
 354 00f6 0794     		str	r4, [sp, #28]
 266:Core/Src/main.c ****   GPIO_InitStruct.Pull = LL_GPIO_PULL_NO;
 355              		.loc 1 266 3 is_stmt 1 view .LVU119
 356              		.loc 1 266 24 is_stmt 0 view .LVU120
 357 00f8 0894     		str	r4, [sp, #32]
 267:Core/Src/main.c ****   LL_GPIO_Init(LED2_GPIO_Port, &GPIO_InitStruct);
 358              		.loc 1 267 3 is_stmt 1 view .LVU121
 359 00fa 04A8     		add	r0, sp, #16
 360 00fc 0100     		movs	r1, r0
 361 00fe 2800     		movs	r0, r5
 362 0100 FFF7FEFF 		bl	LL_GPIO_Init
 363              	.LVL18:
 268:Core/Src/main.c **** 
 269:Core/Src/main.c ****   /**/
 270:Core/Src/main.c ****   GPIO_InitStruct.Pin = LED3_Pin;
 364              		.loc 1 270 3 view .LVU122
 365              		.loc 1 270 23 is_stmt 0 view .LVU123
 366 0104 4046     		mov	r0, r8
 367 0106 0490     		str	r0, [sp, #16]
 271:Core/Src/main.c ****   GPIO_InitStruct.Mode = LL_GPIO_MODE_OUTPUT;
 368              		.loc 1 271 3 is_stmt 1 view .LVU124
 369              		.loc 1 271 24 is_stmt 0 view .LVU125
 370 0108 0596     		str	r6, [sp, #20]
 272:Core/Src/main.c ****   GPIO_InitStruct.Speed = LL_GPIO_SPEED_FREQ_LOW;
 371              		.loc 1 272 3 is_stmt 1 view .LVU126
 372              		.loc 1 272 25 is_stmt 0 view .LVU127
 373 010a 0694     		str	r4, [sp, #24]
 273:Core/Src/main.c ****   GPIO_InitStruct.OutputType = LL_GPIO_OUTPUT_PUSHPULL;
 374              		.loc 1 273 3 is_stmt 1 view .LVU128
 375              		.loc 1 273 30 is_stmt 0 view .LVU129
 376 010c 0794     		str	r4, [sp, #28]
ARM GAS  C:\Users\vuyani\AppData\Local\Temp\ccwdY4Wa.s 			page 32


 274:Core/Src/main.c ****   GPIO_InitStruct.Pull = LL_GPIO_PULL_NO;
 377              		.loc 1 274 3 is_stmt 1 view .LVU130
 378              		.loc 1 274 24 is_stmt 0 view .LVU131
 379 010e 0894     		str	r4, [sp, #32]
 275:Core/Src/main.c ****   LL_GPIO_Init(LED3_GPIO_Port, &GPIO_InitStruct);
 380              		.loc 1 275 3 is_stmt 1 view .LVU132
 381 0110 04A8     		add	r0, sp, #16
 382 0112 0100     		movs	r1, r0
 383 0114 2800     		movs	r0, r5
 384 0116 FFF7FEFF 		bl	LL_GPIO_Init
 385              	.LVL19:
 276:Core/Src/main.c **** 
 277:Core/Src/main.c ****   /**/
 278:Core/Src/main.c ****   GPIO_InitStruct.Pin = LED4_Pin;
 386              		.loc 1 278 3 view .LVU133
 387              		.loc 1 278 23 is_stmt 0 view .LVU134
 388 011a 5846     		mov	r0, fp
 389 011c 0490     		str	r0, [sp, #16]
 279:Core/Src/main.c ****   GPIO_InitStruct.Mode = LL_GPIO_MODE_OUTPUT;
 390              		.loc 1 279 3 is_stmt 1 view .LVU135
 391              		.loc 1 279 24 is_stmt 0 view .LVU136
 392 011e 0596     		str	r6, [sp, #20]
 280:Core/Src/main.c ****   GPIO_InitStruct.Speed = LL_GPIO_SPEED_FREQ_LOW;
 393              		.loc 1 280 3 is_stmt 1 view .LVU137
 394              		.loc 1 280 25 is_stmt 0 view .LVU138
 395 0120 0694     		str	r4, [sp, #24]
 281:Core/Src/main.c ****   GPIO_InitStruct.OutputType = LL_GPIO_OUTPUT_PUSHPULL;
 396              		.loc 1 281 3 is_stmt 1 view .LVU139
 397              		.loc 1 281 30 is_stmt 0 view .LVU140
 398 0122 0794     		str	r4, [sp, #28]
 282:Core/Src/main.c ****   GPIO_InitStruct.Pull = LL_GPIO_PULL_NO;
 399              		.loc 1 282 3 is_stmt 1 view .LVU141
 400              		.loc 1 282 24 is_stmt 0 view .LVU142
 401 0124 0894     		str	r4, [sp, #32]
 283:Core/Src/main.c ****   LL_GPIO_Init(LED4_GPIO_Port, &GPIO_InitStruct);
 402              		.loc 1 283 3 is_stmt 1 view .LVU143
 403 0126 04A8     		add	r0, sp, #16
 404 0128 0100     		movs	r1, r0
 405 012a 2800     		movs	r0, r5
 406 012c FFF7FEFF 		bl	LL_GPIO_Init
 407              	.LVL20:
 284:Core/Src/main.c **** 
 285:Core/Src/main.c ****   /**/
 286:Core/Src/main.c ****   GPIO_InitStruct.Pin = LED5_Pin;
 408              		.loc 1 286 3 view .LVU144
 409              		.loc 1 286 23 is_stmt 0 view .LVU145
 410 0130 2023     		movs	r3, #32
 411 0132 0493     		str	r3, [sp, #16]
 287:Core/Src/main.c ****   GPIO_InitStruct.Mode = LL_GPIO_MODE_OUTPUT;
 412              		.loc 1 287 3 is_stmt 1 view .LVU146
 413              		.loc 1 287 24 is_stmt 0 view .LVU147
 414 0134 0596     		str	r6, [sp, #20]
 288:Core/Src/main.c ****   GPIO_InitStruct.Speed = LL_GPIO_SPEED_FREQ_LOW;
 415              		.loc 1 288 3 is_stmt 1 view .LVU148
 416              		.loc 1 288 25 is_stmt 0 view .LVU149
 417 0136 0694     		str	r4, [sp, #24]
 289:Core/Src/main.c ****   GPIO_InitStruct.OutputType = LL_GPIO_OUTPUT_PUSHPULL;
ARM GAS  C:\Users\vuyani\AppData\Local\Temp\ccwdY4Wa.s 			page 33


 418              		.loc 1 289 3 is_stmt 1 view .LVU150
 419              		.loc 1 289 30 is_stmt 0 view .LVU151
 420 0138 0794     		str	r4, [sp, #28]
 290:Core/Src/main.c ****   GPIO_InitStruct.Pull = LL_GPIO_PULL_NO;
 421              		.loc 1 290 3 is_stmt 1 view .LVU152
 422              		.loc 1 290 24 is_stmt 0 view .LVU153
 423 013a 0894     		str	r4, [sp, #32]
 291:Core/Src/main.c ****   LL_GPIO_Init(LED5_GPIO_Port, &GPIO_InitStruct);
 424              		.loc 1 291 3 is_stmt 1 view .LVU154
 425 013c 04AB     		add	r3, sp, #16
 426 013e 1900     		movs	r1, r3
 427 0140 2800     		movs	r0, r5
 428 0142 FFF7FEFF 		bl	LL_GPIO_Init
 429              	.LVL21:
 292:Core/Src/main.c **** 
 293:Core/Src/main.c ****   /**/
 294:Core/Src/main.c ****   GPIO_InitStruct.Pin = LED6_Pin;
 430              		.loc 1 294 3 view .LVU155
 431              		.loc 1 294 23 is_stmt 0 view .LVU156
 432 0146 4022     		movs	r2, #64
 433 0148 0492     		str	r2, [sp, #16]
 295:Core/Src/main.c ****   GPIO_InitStruct.Mode = LL_GPIO_MODE_OUTPUT;
 434              		.loc 1 295 3 is_stmt 1 view .LVU157
 435              		.loc 1 295 24 is_stmt 0 view .LVU158
 436 014a 0596     		str	r6, [sp, #20]
 296:Core/Src/main.c ****   GPIO_InitStruct.Speed = LL_GPIO_SPEED_FREQ_LOW;
 437              		.loc 1 296 3 is_stmt 1 view .LVU159
 438              		.loc 1 296 25 is_stmt 0 view .LVU160
 439 014c 0694     		str	r4, [sp, #24]
 297:Core/Src/main.c ****   GPIO_InitStruct.OutputType = LL_GPIO_OUTPUT_PUSHPULL;
 440              		.loc 1 297 3 is_stmt 1 view .LVU161
 441              		.loc 1 297 30 is_stmt 0 view .LVU162
 442 014e 0794     		str	r4, [sp, #28]
 298:Core/Src/main.c ****   GPIO_InitStruct.Pull = LL_GPIO_PULL_NO;
 443              		.loc 1 298 3 is_stmt 1 view .LVU163
 444              		.loc 1 298 24 is_stmt 0 view .LVU164
 445 0150 0894     		str	r4, [sp, #32]
 299:Core/Src/main.c ****   LL_GPIO_Init(LED6_GPIO_Port, &GPIO_InitStruct);
 446              		.loc 1 299 3 is_stmt 1 view .LVU165
 447 0152 04AB     		add	r3, sp, #16
 448 0154 1900     		movs	r1, r3
 449 0156 2800     		movs	r0, r5
 450 0158 FFF7FEFF 		bl	LL_GPIO_Init
 451              	.LVL22:
 300:Core/Src/main.c **** 
 301:Core/Src/main.c ****   /**/
 302:Core/Src/main.c ****   GPIO_InitStruct.Pin = LED7_Pin;
 452              		.loc 1 302 3 view .LVU166
 453              		.loc 1 302 23 is_stmt 0 view .LVU167
 454 015c 8021     		movs	r1, #128
 455 015e 0491     		str	r1, [sp, #16]
 303:Core/Src/main.c ****   GPIO_InitStruct.Mode = LL_GPIO_MODE_OUTPUT;
 456              		.loc 1 303 3 is_stmt 1 view .LVU168
 457              		.loc 1 303 24 is_stmt 0 view .LVU169
 458 0160 0596     		str	r6, [sp, #20]
 304:Core/Src/main.c ****   GPIO_InitStruct.Speed = LL_GPIO_SPEED_FREQ_LOW;
 459              		.loc 1 304 3 is_stmt 1 view .LVU170
ARM GAS  C:\Users\vuyani\AppData\Local\Temp\ccwdY4Wa.s 			page 34


 460              		.loc 1 304 25 is_stmt 0 view .LVU171
 461 0162 0694     		str	r4, [sp, #24]
 305:Core/Src/main.c ****   GPIO_InitStruct.OutputType = LL_GPIO_OUTPUT_PUSHPULL;
 462              		.loc 1 305 3 is_stmt 1 view .LVU172
 463              		.loc 1 305 30 is_stmt 0 view .LVU173
 464 0164 0794     		str	r4, [sp, #28]
 306:Core/Src/main.c ****   GPIO_InitStruct.Pull = LL_GPIO_PULL_NO;
 465              		.loc 1 306 3 is_stmt 1 view .LVU174
 466              		.loc 1 306 24 is_stmt 0 view .LVU175
 467 0166 0894     		str	r4, [sp, #32]
 307:Core/Src/main.c ****   LL_GPIO_Init(LED7_GPIO_Port, &GPIO_InitStruct);
 468              		.loc 1 307 3 is_stmt 1 view .LVU176
 469 0168 04A9     		add	r1, sp, #16
 470 016a 2800     		movs	r0, r5
 471 016c FFF7FEFF 		bl	LL_GPIO_Init
 472              	.LVL23:
 308:Core/Src/main.c **** 
 309:Core/Src/main.c ****   /**/
 310:Core/Src/main.c ****   GPIO_InitStruct.Pin = LL_GPIO_PIN_9;
 473              		.loc 1 310 3 view .LVU177
 474              		.loc 1 310 23 is_stmt 0 view .LVU178
 475 0170 8023     		movs	r3, #128
 476 0172 9B00     		lsls	r3, r3, #2
 477 0174 0493     		str	r3, [sp, #16]
 311:Core/Src/main.c ****   GPIO_InitStruct.Mode = LL_GPIO_MODE_INPUT;
 478              		.loc 1 311 3 is_stmt 1 view .LVU179
 479              		.loc 1 311 24 is_stmt 0 view .LVU180
 480 0176 0594     		str	r4, [sp, #20]
 312:Core/Src/main.c ****   GPIO_InitStruct.Pull = LL_GPIO_PULL_NO;
 481              		.loc 1 312 3 is_stmt 1 view .LVU181
 482              		.loc 1 312 24 is_stmt 0 view .LVU182
 483 0178 0894     		str	r4, [sp, #32]
 313:Core/Src/main.c ****   LL_GPIO_Init(GPIOB, &GPIO_InitStruct);
 484              		.loc 1 313 3 is_stmt 1 view .LVU183
 485 017a 04A9     		add	r1, sp, #16
 486 017c 2800     		movs	r0, r5
 487 017e FFF7FEFF 		bl	LL_GPIO_Init
 488              	.LVL24:
 314:Core/Src/main.c **** 
 315:Core/Src/main.c **** /* USER CODE BEGIN MX_GPIO_Init_2 */
 316:Core/Src/main.c **** /* USER CODE END MX_GPIO_Init_2 */
 317:Core/Src/main.c **** }
 489              		.loc 1 317 1 is_stmt 0 view .LVU184
 490 0182 0BB0     		add	sp, sp, #44
 491              		@ sp needed
 492 0184 F0BC     		pop	{r4, r5, r6, r7}
 493 0186 BB46     		mov	fp, r7
 494 0188 B246     		mov	r10, r6
 495 018a A946     		mov	r9, r5
 496 018c A046     		mov	r8, r4
 497 018e F0BD     		pop	{r4, r5, r6, r7, pc}
 498              	.L3:
 499              		.align	2
 500              	.L2:
 501 0190 00100240 		.word	1073876992
 502 0194 00040048 		.word	1207960576
 503              		.cfi_endproc
ARM GAS  C:\Users\vuyani\AppData\Local\Temp\ccwdY4Wa.s 			page 35


 504              	.LFE346:
 506              		.section	.text.TIM16_IRQHandler,"ax",%progbits
 507              		.align	1
 508              		.global	TIM16_IRQHandler
 509              		.syntax unified
 510              		.code	16
 511              		.thumb_func
 513              	TIM16_IRQHandler:
 514              	.LFB347:
 318:Core/Src/main.c **** 
 319:Core/Src/main.c **** /* USER CODE BEGIN 4 */
 320:Core/Src/main.c **** 
 321:Core/Src/main.c **** // Timer rolled over
 322:Core/Src/main.c **** void TIM16_IRQHandler(void)
 323:Core/Src/main.c **** {
 515              		.loc 1 323 1 is_stmt 1 view -0
 516              		.cfi_startproc
 517              		@ args = 0, pretend = 0, frame = 0
 518              		@ frame_needed = 0, uses_anonymous_args = 0
 519 0000 10B5     		push	{r4, lr}
 520              	.LCFI3:
 521              		.cfi_def_cfa_offset 8
 522              		.cfi_offset 4, -8
 523              		.cfi_offset 14, -4
 324:Core/Src/main.c **** 	// Acknowledge interrupt
 325:Core/Src/main.c **** 	HAL_TIM_IRQHandler(&htim16);
 524              		.loc 1 325 2 view .LVU186
 525 0002 0248     		ldr	r0, .L5
 526 0004 FFF7FEFF 		bl	HAL_TIM_IRQHandler
 527              	.LVL25:
 326:Core/Src/main.c **** 
 327:Core/Src/main.c **** 	// TODO: Change LED pattern
 328:Core/Src/main.c **** 	// print something
 329:Core/Src/main.c **** 
 330:Core/Src/main.c ****   
 331:Core/Src/main.c **** }
 528              		.loc 1 331 1 is_stmt 0 view .LVU187
 529              		@ sp needed
 530 0008 10BD     		pop	{r4, pc}
 531              	.L6:
 532 000a C046     		.align	2
 533              	.L5:
 534 000c 00000000 		.word	htim16
 535              		.cfi_endproc
 536              	.LFE347:
 538              		.section	.text.Error_Handler,"ax",%progbits
 539              		.align	1
 540              		.global	Error_Handler
 541              		.syntax unified
 542              		.code	16
 543              		.thumb_func
 545              	Error_Handler:
 546              	.LFB348:
 332:Core/Src/main.c **** 
 333:Core/Src/main.c **** /* USER CODE END 4 */
 334:Core/Src/main.c **** 
 335:Core/Src/main.c **** /**
ARM GAS  C:\Users\vuyani\AppData\Local\Temp\ccwdY4Wa.s 			page 36


 336:Core/Src/main.c ****   * @brief  This function is executed in case of error occurrence.
 337:Core/Src/main.c ****   * @retval None
 338:Core/Src/main.c ****   */
 339:Core/Src/main.c **** void Error_Handler(void)
 340:Core/Src/main.c **** {
 547              		.loc 1 340 1 is_stmt 1 view -0
 548              		.cfi_startproc
 549              		@ Volatile: function does not return.
 550              		@ args = 0, pretend = 0, frame = 0
 551              		@ frame_needed = 0, uses_anonymous_args = 0
 552              		@ link register save eliminated.
 341:Core/Src/main.c ****   /* USER CODE BEGIN Error_Handler_Debug */
 342:Core/Src/main.c ****   /* User can add his own implementation to report the HAL error return state */
 343:Core/Src/main.c ****   __disable_irq();
 553              		.loc 1 343 3 view .LVU189
 554              	.LBB68:
 555              	.LBI68:
 556              		.file 4 "Drivers/CMSIS/Include/cmsis_gcc.h"
   1:Drivers/CMSIS/Include/cmsis_gcc.h **** /**************************************************************************//**
   2:Drivers/CMSIS/Include/cmsis_gcc.h ****  * @file     cmsis_gcc.h
   3:Drivers/CMSIS/Include/cmsis_gcc.h ****  * @brief    CMSIS compiler GCC header file
   4:Drivers/CMSIS/Include/cmsis_gcc.h ****  * @version  V5.0.4
   5:Drivers/CMSIS/Include/cmsis_gcc.h ****  * @date     09. April 2018
   6:Drivers/CMSIS/Include/cmsis_gcc.h ****  ******************************************************************************/
   7:Drivers/CMSIS/Include/cmsis_gcc.h **** /*
   8:Drivers/CMSIS/Include/cmsis_gcc.h ****  * Copyright (c) 2009-2018 Arm Limited. All rights reserved.
   9:Drivers/CMSIS/Include/cmsis_gcc.h ****  *
  10:Drivers/CMSIS/Include/cmsis_gcc.h ****  * SPDX-License-Identifier: Apache-2.0
  11:Drivers/CMSIS/Include/cmsis_gcc.h ****  *
  12:Drivers/CMSIS/Include/cmsis_gcc.h ****  * Licensed under the Apache License, Version 2.0 (the License); you may
  13:Drivers/CMSIS/Include/cmsis_gcc.h ****  * not use this file except in compliance with the License.
  14:Drivers/CMSIS/Include/cmsis_gcc.h ****  * You may obtain a copy of the License at
  15:Drivers/CMSIS/Include/cmsis_gcc.h ****  *
  16:Drivers/CMSIS/Include/cmsis_gcc.h ****  * www.apache.org/licenses/LICENSE-2.0
  17:Drivers/CMSIS/Include/cmsis_gcc.h ****  *
  18:Drivers/CMSIS/Include/cmsis_gcc.h ****  * Unless required by applicable law or agreed to in writing, software
  19:Drivers/CMSIS/Include/cmsis_gcc.h ****  * distributed under the License is distributed on an AS IS BASIS, WITHOUT
  20:Drivers/CMSIS/Include/cmsis_gcc.h ****  * WARRANTIES OR CONDITIONS OF ANY KIND, either express or implied.
  21:Drivers/CMSIS/Include/cmsis_gcc.h ****  * See the License for the specific language governing permissions and
  22:Drivers/CMSIS/Include/cmsis_gcc.h ****  * limitations under the License.
  23:Drivers/CMSIS/Include/cmsis_gcc.h ****  */
  24:Drivers/CMSIS/Include/cmsis_gcc.h **** 
  25:Drivers/CMSIS/Include/cmsis_gcc.h **** #ifndef __CMSIS_GCC_H
  26:Drivers/CMSIS/Include/cmsis_gcc.h **** #define __CMSIS_GCC_H
  27:Drivers/CMSIS/Include/cmsis_gcc.h **** 
  28:Drivers/CMSIS/Include/cmsis_gcc.h **** /* ignore some GCC warnings */
  29:Drivers/CMSIS/Include/cmsis_gcc.h **** #pragma GCC diagnostic push
  30:Drivers/CMSIS/Include/cmsis_gcc.h **** #pragma GCC diagnostic ignored "-Wsign-conversion"
  31:Drivers/CMSIS/Include/cmsis_gcc.h **** #pragma GCC diagnostic ignored "-Wconversion"
  32:Drivers/CMSIS/Include/cmsis_gcc.h **** #pragma GCC diagnostic ignored "-Wunused-parameter"
  33:Drivers/CMSIS/Include/cmsis_gcc.h **** 
  34:Drivers/CMSIS/Include/cmsis_gcc.h **** /* Fallback for __has_builtin */
  35:Drivers/CMSIS/Include/cmsis_gcc.h **** #ifndef __has_builtin
  36:Drivers/CMSIS/Include/cmsis_gcc.h ****   #define __has_builtin(x) (0)
  37:Drivers/CMSIS/Include/cmsis_gcc.h **** #endif
  38:Drivers/CMSIS/Include/cmsis_gcc.h **** 
  39:Drivers/CMSIS/Include/cmsis_gcc.h **** /* CMSIS compiler specific defines */
ARM GAS  C:\Users\vuyani\AppData\Local\Temp\ccwdY4Wa.s 			page 37


  40:Drivers/CMSIS/Include/cmsis_gcc.h **** #ifndef   __ASM
  41:Drivers/CMSIS/Include/cmsis_gcc.h ****   #define __ASM                                  __asm
  42:Drivers/CMSIS/Include/cmsis_gcc.h **** #endif
  43:Drivers/CMSIS/Include/cmsis_gcc.h **** #ifndef   __INLINE
  44:Drivers/CMSIS/Include/cmsis_gcc.h ****   #define __INLINE                               inline
  45:Drivers/CMSIS/Include/cmsis_gcc.h **** #endif
  46:Drivers/CMSIS/Include/cmsis_gcc.h **** #ifndef   __STATIC_INLINE
  47:Drivers/CMSIS/Include/cmsis_gcc.h ****   #define __STATIC_INLINE                        static inline
  48:Drivers/CMSIS/Include/cmsis_gcc.h **** #endif
  49:Drivers/CMSIS/Include/cmsis_gcc.h **** #ifndef   __STATIC_FORCEINLINE                 
  50:Drivers/CMSIS/Include/cmsis_gcc.h ****   #define __STATIC_FORCEINLINE                   __attribute__((always_inline)) static inline
  51:Drivers/CMSIS/Include/cmsis_gcc.h **** #endif                                           
  52:Drivers/CMSIS/Include/cmsis_gcc.h **** #ifndef   __NO_RETURN
  53:Drivers/CMSIS/Include/cmsis_gcc.h ****   #define __NO_RETURN                            __attribute__((__noreturn__))
  54:Drivers/CMSIS/Include/cmsis_gcc.h **** #endif
  55:Drivers/CMSIS/Include/cmsis_gcc.h **** #ifndef   __USED
  56:Drivers/CMSIS/Include/cmsis_gcc.h ****   #define __USED                                 __attribute__((used))
  57:Drivers/CMSIS/Include/cmsis_gcc.h **** #endif
  58:Drivers/CMSIS/Include/cmsis_gcc.h **** #ifndef   __WEAK
  59:Drivers/CMSIS/Include/cmsis_gcc.h ****   #define __WEAK                                 __attribute__((weak))
  60:Drivers/CMSIS/Include/cmsis_gcc.h **** #endif
  61:Drivers/CMSIS/Include/cmsis_gcc.h **** #ifndef   __PACKED
  62:Drivers/CMSIS/Include/cmsis_gcc.h ****   #define __PACKED                               __attribute__((packed, aligned(1)))
  63:Drivers/CMSIS/Include/cmsis_gcc.h **** #endif
  64:Drivers/CMSIS/Include/cmsis_gcc.h **** #ifndef   __PACKED_STRUCT
  65:Drivers/CMSIS/Include/cmsis_gcc.h ****   #define __PACKED_STRUCT                        struct __attribute__((packed, aligned(1)))
  66:Drivers/CMSIS/Include/cmsis_gcc.h **** #endif
  67:Drivers/CMSIS/Include/cmsis_gcc.h **** #ifndef   __PACKED_UNION
  68:Drivers/CMSIS/Include/cmsis_gcc.h ****   #define __PACKED_UNION                         union __attribute__((packed, aligned(1)))
  69:Drivers/CMSIS/Include/cmsis_gcc.h **** #endif
  70:Drivers/CMSIS/Include/cmsis_gcc.h **** #ifndef   __UNALIGNED_UINT32        /* deprecated */
  71:Drivers/CMSIS/Include/cmsis_gcc.h ****   #pragma GCC diagnostic push
  72:Drivers/CMSIS/Include/cmsis_gcc.h ****   #pragma GCC diagnostic ignored "-Wpacked"
  73:Drivers/CMSIS/Include/cmsis_gcc.h ****   #pragma GCC diagnostic ignored "-Wattributes"
  74:Drivers/CMSIS/Include/cmsis_gcc.h ****   struct __attribute__((packed)) T_UINT32 { uint32_t v; };
  75:Drivers/CMSIS/Include/cmsis_gcc.h ****   #pragma GCC diagnostic pop
  76:Drivers/CMSIS/Include/cmsis_gcc.h ****   #define __UNALIGNED_UINT32(x)                  (((struct T_UINT32 *)(x))->v)
  77:Drivers/CMSIS/Include/cmsis_gcc.h **** #endif
  78:Drivers/CMSIS/Include/cmsis_gcc.h **** #ifndef   __UNALIGNED_UINT16_WRITE
  79:Drivers/CMSIS/Include/cmsis_gcc.h ****   #pragma GCC diagnostic push
  80:Drivers/CMSIS/Include/cmsis_gcc.h ****   #pragma GCC diagnostic ignored "-Wpacked"
  81:Drivers/CMSIS/Include/cmsis_gcc.h ****   #pragma GCC diagnostic ignored "-Wattributes"
  82:Drivers/CMSIS/Include/cmsis_gcc.h ****   __PACKED_STRUCT T_UINT16_WRITE { uint16_t v; };
  83:Drivers/CMSIS/Include/cmsis_gcc.h ****   #pragma GCC diagnostic pop
  84:Drivers/CMSIS/Include/cmsis_gcc.h ****   #define __UNALIGNED_UINT16_WRITE(addr, val)    (void)((((struct T_UINT16_WRITE *)(void *)(addr))-
  85:Drivers/CMSIS/Include/cmsis_gcc.h **** #endif
  86:Drivers/CMSIS/Include/cmsis_gcc.h **** #ifndef   __UNALIGNED_UINT16_READ
  87:Drivers/CMSIS/Include/cmsis_gcc.h ****   #pragma GCC diagnostic push
  88:Drivers/CMSIS/Include/cmsis_gcc.h ****   #pragma GCC diagnostic ignored "-Wpacked"
  89:Drivers/CMSIS/Include/cmsis_gcc.h ****   #pragma GCC diagnostic ignored "-Wattributes"
  90:Drivers/CMSIS/Include/cmsis_gcc.h ****   __PACKED_STRUCT T_UINT16_READ { uint16_t v; };
  91:Drivers/CMSIS/Include/cmsis_gcc.h ****   #pragma GCC diagnostic pop
  92:Drivers/CMSIS/Include/cmsis_gcc.h ****   #define __UNALIGNED_UINT16_READ(addr)          (((const struct T_UINT16_READ *)(const void *)(add
  93:Drivers/CMSIS/Include/cmsis_gcc.h **** #endif
  94:Drivers/CMSIS/Include/cmsis_gcc.h **** #ifndef   __UNALIGNED_UINT32_WRITE
  95:Drivers/CMSIS/Include/cmsis_gcc.h ****   #pragma GCC diagnostic push
  96:Drivers/CMSIS/Include/cmsis_gcc.h ****   #pragma GCC diagnostic ignored "-Wpacked"
ARM GAS  C:\Users\vuyani\AppData\Local\Temp\ccwdY4Wa.s 			page 38


  97:Drivers/CMSIS/Include/cmsis_gcc.h ****   #pragma GCC diagnostic ignored "-Wattributes"
  98:Drivers/CMSIS/Include/cmsis_gcc.h ****   __PACKED_STRUCT T_UINT32_WRITE { uint32_t v; };
  99:Drivers/CMSIS/Include/cmsis_gcc.h ****   #pragma GCC diagnostic pop
 100:Drivers/CMSIS/Include/cmsis_gcc.h ****   #define __UNALIGNED_UINT32_WRITE(addr, val)    (void)((((struct T_UINT32_WRITE *)(void *)(addr))-
 101:Drivers/CMSIS/Include/cmsis_gcc.h **** #endif
 102:Drivers/CMSIS/Include/cmsis_gcc.h **** #ifndef   __UNALIGNED_UINT32_READ
 103:Drivers/CMSIS/Include/cmsis_gcc.h ****   #pragma GCC diagnostic push
 104:Drivers/CMSIS/Include/cmsis_gcc.h ****   #pragma GCC diagnostic ignored "-Wpacked"
 105:Drivers/CMSIS/Include/cmsis_gcc.h ****   #pragma GCC diagnostic ignored "-Wattributes"
 106:Drivers/CMSIS/Include/cmsis_gcc.h ****   __PACKED_STRUCT T_UINT32_READ { uint32_t v; };
 107:Drivers/CMSIS/Include/cmsis_gcc.h ****   #pragma GCC diagnostic pop
 108:Drivers/CMSIS/Include/cmsis_gcc.h ****   #define __UNALIGNED_UINT32_READ(addr)          (((const struct T_UINT32_READ *)(const void *)(add
 109:Drivers/CMSIS/Include/cmsis_gcc.h **** #endif
 110:Drivers/CMSIS/Include/cmsis_gcc.h **** #ifndef   __ALIGNED
 111:Drivers/CMSIS/Include/cmsis_gcc.h ****   #define __ALIGNED(x)                           __attribute__((aligned(x)))
 112:Drivers/CMSIS/Include/cmsis_gcc.h **** #endif
 113:Drivers/CMSIS/Include/cmsis_gcc.h **** #ifndef   __RESTRICT
 114:Drivers/CMSIS/Include/cmsis_gcc.h ****   #define __RESTRICT                             __restrict
 115:Drivers/CMSIS/Include/cmsis_gcc.h **** #endif
 116:Drivers/CMSIS/Include/cmsis_gcc.h **** 
 117:Drivers/CMSIS/Include/cmsis_gcc.h **** 
 118:Drivers/CMSIS/Include/cmsis_gcc.h **** /* ###########################  Core Function Access  ########################### */
 119:Drivers/CMSIS/Include/cmsis_gcc.h **** /** \ingroup  CMSIS_Core_FunctionInterface
 120:Drivers/CMSIS/Include/cmsis_gcc.h ****     \defgroup CMSIS_Core_RegAccFunctions CMSIS Core Register Access Functions
 121:Drivers/CMSIS/Include/cmsis_gcc.h ****   @{
 122:Drivers/CMSIS/Include/cmsis_gcc.h ****  */
 123:Drivers/CMSIS/Include/cmsis_gcc.h **** 
 124:Drivers/CMSIS/Include/cmsis_gcc.h **** /**
 125:Drivers/CMSIS/Include/cmsis_gcc.h ****   \brief   Enable IRQ Interrupts
 126:Drivers/CMSIS/Include/cmsis_gcc.h ****   \details Enables IRQ interrupts by clearing the I-bit in the CPSR.
 127:Drivers/CMSIS/Include/cmsis_gcc.h ****            Can only be executed in Privileged modes.
 128:Drivers/CMSIS/Include/cmsis_gcc.h ****  */
 129:Drivers/CMSIS/Include/cmsis_gcc.h **** __STATIC_FORCEINLINE void __enable_irq(void)
 130:Drivers/CMSIS/Include/cmsis_gcc.h **** {
 131:Drivers/CMSIS/Include/cmsis_gcc.h ****   __ASM volatile ("cpsie i" : : : "memory");
 132:Drivers/CMSIS/Include/cmsis_gcc.h **** }
 133:Drivers/CMSIS/Include/cmsis_gcc.h **** 
 134:Drivers/CMSIS/Include/cmsis_gcc.h **** 
 135:Drivers/CMSIS/Include/cmsis_gcc.h **** /**
 136:Drivers/CMSIS/Include/cmsis_gcc.h ****   \brief   Disable IRQ Interrupts
 137:Drivers/CMSIS/Include/cmsis_gcc.h ****   \details Disables IRQ interrupts by setting the I-bit in the CPSR.
 138:Drivers/CMSIS/Include/cmsis_gcc.h ****            Can only be executed in Privileged modes.
 139:Drivers/CMSIS/Include/cmsis_gcc.h ****  */
 140:Drivers/CMSIS/Include/cmsis_gcc.h **** __STATIC_FORCEINLINE void __disable_irq(void)
 557              		.loc 4 140 27 view .LVU190
 558              	.LBB69:
 141:Drivers/CMSIS/Include/cmsis_gcc.h **** {
 142:Drivers/CMSIS/Include/cmsis_gcc.h ****   __ASM volatile ("cpsid i" : : : "memory");
 559              		.loc 4 142 3 view .LVU191
 560              		.syntax divided
 561              	@ 142 "Drivers/CMSIS/Include/cmsis_gcc.h" 1
 562 0000 72B6     		cpsid i
 563              	@ 0 "" 2
 564              		.thumb
 565              		.syntax unified
 566              	.L8:
 567              	.LBE69:
ARM GAS  C:\Users\vuyani\AppData\Local\Temp\ccwdY4Wa.s 			page 39


 568              	.LBE68:
 344:Core/Src/main.c ****   while (1)
 569              		.loc 1 344 3 discriminator 1 view .LVU192
 345:Core/Src/main.c ****   {
 346:Core/Src/main.c ****   }
 570              		.loc 1 346 3 discriminator 1 view .LVU193
 344:Core/Src/main.c ****   while (1)
 571              		.loc 1 344 9 discriminator 1 view .LVU194
 572 0002 FEE7     		b	.L8
 573              		.cfi_endproc
 574              	.LFE348:
 576              		.section	.text.MX_TIM16_Init,"ax",%progbits
 577              		.align	1
 578              		.syntax unified
 579              		.code	16
 580              		.thumb_func
 582              	MX_TIM16_Init:
 583              	.LFB345:
 155:Core/Src/main.c **** 
 584              		.loc 1 155 1 view -0
 585              		.cfi_startproc
 586              		@ args = 0, pretend = 0, frame = 0
 587              		@ frame_needed = 0, uses_anonymous_args = 0
 588 0000 10B5     		push	{r4, lr}
 589              	.LCFI4:
 590              		.cfi_def_cfa_offset 8
 591              		.cfi_offset 4, -8
 592              		.cfi_offset 14, -4
 164:Core/Src/main.c ****   htim16.Init.Prescaler = 8000-1;
 593              		.loc 1 164 3 view .LVU196
 164:Core/Src/main.c ****   htim16.Init.Prescaler = 8000-1;
 594              		.loc 1 164 19 is_stmt 0 view .LVU197
 595 0002 0C48     		ldr	r0, .L12
 596 0004 0C4B     		ldr	r3, .L12+4
 597 0006 0360     		str	r3, [r0]
 165:Core/Src/main.c ****   htim16.Init.CounterMode = TIM_COUNTERMODE_UP;
 598              		.loc 1 165 3 is_stmt 1 view .LVU198
 165:Core/Src/main.c ****   htim16.Init.CounterMode = TIM_COUNTERMODE_UP;
 599              		.loc 1 165 25 is_stmt 0 view .LVU199
 600 0008 0C4B     		ldr	r3, .L12+8
 601 000a 4360     		str	r3, [r0, #4]
 166:Core/Src/main.c ****   htim16.Init.Period = 1000-1;
 602              		.loc 1 166 3 is_stmt 1 view .LVU200
 166:Core/Src/main.c ****   htim16.Init.Period = 1000-1;
 603              		.loc 1 166 27 is_stmt 0 view .LVU201
 604 000c 0023     		movs	r3, #0
 605 000e 8360     		str	r3, [r0, #8]
 167:Core/Src/main.c ****   htim16.Init.ClockDivision = TIM_CLOCKDIVISION_DIV1;
 606              		.loc 1 167 3 is_stmt 1 view .LVU202
 167:Core/Src/main.c ****   htim16.Init.ClockDivision = TIM_CLOCKDIVISION_DIV1;
 607              		.loc 1 167 22 is_stmt 0 view .LVU203
 608 0010 0B4A     		ldr	r2, .L12+12
 609 0012 C260     		str	r2, [r0, #12]
 168:Core/Src/main.c ****   htim16.Init.RepetitionCounter = 0;
 610              		.loc 1 168 3 is_stmt 1 view .LVU204
 168:Core/Src/main.c ****   htim16.Init.RepetitionCounter = 0;
 611              		.loc 1 168 29 is_stmt 0 view .LVU205
ARM GAS  C:\Users\vuyani\AppData\Local\Temp\ccwdY4Wa.s 			page 40


 612 0014 0361     		str	r3, [r0, #16]
 169:Core/Src/main.c ****   htim16.Init.AutoReloadPreload = TIM_AUTORELOAD_PRELOAD_ENABLE;
 613              		.loc 1 169 3 is_stmt 1 view .LVU206
 169:Core/Src/main.c ****   htim16.Init.AutoReloadPreload = TIM_AUTORELOAD_PRELOAD_ENABLE;
 614              		.loc 1 169 33 is_stmt 0 view .LVU207
 615 0016 4361     		str	r3, [r0, #20]
 170:Core/Src/main.c ****   if (HAL_TIM_Base_Init(&htim16) != HAL_OK)
 616              		.loc 1 170 3 is_stmt 1 view .LVU208
 170:Core/Src/main.c ****   if (HAL_TIM_Base_Init(&htim16) != HAL_OK)
 617              		.loc 1 170 33 is_stmt 0 view .LVU209
 618 0018 8033     		adds	r3, r3, #128
 619 001a 8361     		str	r3, [r0, #24]
 171:Core/Src/main.c ****   {
 620              		.loc 1 171 3 is_stmt 1 view .LVU210
 171:Core/Src/main.c ****   {
 621              		.loc 1 171 7 is_stmt 0 view .LVU211
 622 001c FFF7FEFF 		bl	HAL_TIM_Base_Init
 623              	.LVL26:
 171:Core/Src/main.c ****   {
 624              		.loc 1 171 6 view .LVU212
 625 0020 0028     		cmp	r0, #0
 626 0022 04D1     		bne	.L11
 176:Core/Src/main.c ****   /* USER CODE END TIM16_Init 2 */
 627              		.loc 1 176 3 is_stmt 1 view .LVU213
 628              	.LVL27:
 629              	.LBB70:
 630              	.LBI70:
 631              		.file 5 "Drivers/CMSIS/Include/core_cm0.h"
   1:Drivers/CMSIS/Include/core_cm0.h **** /**************************************************************************//**
   2:Drivers/CMSIS/Include/core_cm0.h ****  * @file     core_cm0.h
   3:Drivers/CMSIS/Include/core_cm0.h ****  * @brief    CMSIS Cortex-M0 Core Peripheral Access Layer Header File
   4:Drivers/CMSIS/Include/core_cm0.h ****  * @version  V5.0.5
   5:Drivers/CMSIS/Include/core_cm0.h ****  * @date     28. May 2018
   6:Drivers/CMSIS/Include/core_cm0.h ****  ******************************************************************************/
   7:Drivers/CMSIS/Include/core_cm0.h **** /*
   8:Drivers/CMSIS/Include/core_cm0.h ****  * Copyright (c) 2009-2018 Arm Limited. All rights reserved.
   9:Drivers/CMSIS/Include/core_cm0.h ****  *
  10:Drivers/CMSIS/Include/core_cm0.h ****  * SPDX-License-Identifier: Apache-2.0
  11:Drivers/CMSIS/Include/core_cm0.h ****  *
  12:Drivers/CMSIS/Include/core_cm0.h ****  * Licensed under the Apache License, Version 2.0 (the License); you may
  13:Drivers/CMSIS/Include/core_cm0.h ****  * not use this file except in compliance with the License.
  14:Drivers/CMSIS/Include/core_cm0.h ****  * You may obtain a copy of the License at
  15:Drivers/CMSIS/Include/core_cm0.h ****  *
  16:Drivers/CMSIS/Include/core_cm0.h ****  * www.apache.org/licenses/LICENSE-2.0
  17:Drivers/CMSIS/Include/core_cm0.h ****  *
  18:Drivers/CMSIS/Include/core_cm0.h ****  * Unless required by applicable law or agreed to in writing, software
  19:Drivers/CMSIS/Include/core_cm0.h ****  * distributed under the License is distributed on an AS IS BASIS, WITHOUT
  20:Drivers/CMSIS/Include/core_cm0.h ****  * WARRANTIES OR CONDITIONS OF ANY KIND, either express or implied.
  21:Drivers/CMSIS/Include/core_cm0.h ****  * See the License for the specific language governing permissions and
  22:Drivers/CMSIS/Include/core_cm0.h ****  * limitations under the License.
  23:Drivers/CMSIS/Include/core_cm0.h ****  */
  24:Drivers/CMSIS/Include/core_cm0.h **** 
  25:Drivers/CMSIS/Include/core_cm0.h **** #if   defined ( __ICCARM__ )
  26:Drivers/CMSIS/Include/core_cm0.h ****   #pragma system_include         /* treat file as system include file for MISRA check */
  27:Drivers/CMSIS/Include/core_cm0.h **** #elif defined (__clang__)
  28:Drivers/CMSIS/Include/core_cm0.h ****   #pragma clang system_header   /* treat file as system include file */
  29:Drivers/CMSIS/Include/core_cm0.h **** #endif
ARM GAS  C:\Users\vuyani\AppData\Local\Temp\ccwdY4Wa.s 			page 41


  30:Drivers/CMSIS/Include/core_cm0.h **** 
  31:Drivers/CMSIS/Include/core_cm0.h **** #ifndef __CORE_CM0_H_GENERIC
  32:Drivers/CMSIS/Include/core_cm0.h **** #define __CORE_CM0_H_GENERIC
  33:Drivers/CMSIS/Include/core_cm0.h **** 
  34:Drivers/CMSIS/Include/core_cm0.h **** #include <stdint.h>
  35:Drivers/CMSIS/Include/core_cm0.h **** 
  36:Drivers/CMSIS/Include/core_cm0.h **** #ifdef __cplusplus
  37:Drivers/CMSIS/Include/core_cm0.h ****  extern "C" {
  38:Drivers/CMSIS/Include/core_cm0.h **** #endif
  39:Drivers/CMSIS/Include/core_cm0.h **** 
  40:Drivers/CMSIS/Include/core_cm0.h **** /**
  41:Drivers/CMSIS/Include/core_cm0.h ****   \page CMSIS_MISRA_Exceptions  MISRA-C:2004 Compliance Exceptions
  42:Drivers/CMSIS/Include/core_cm0.h ****   CMSIS violates the following MISRA-C:2004 rules:
  43:Drivers/CMSIS/Include/core_cm0.h **** 
  44:Drivers/CMSIS/Include/core_cm0.h ****    \li Required Rule 8.5, object/function definition in header file.<br>
  45:Drivers/CMSIS/Include/core_cm0.h ****      Function definitions in header files are used to allow 'inlining'.
  46:Drivers/CMSIS/Include/core_cm0.h **** 
  47:Drivers/CMSIS/Include/core_cm0.h ****    \li Required Rule 18.4, declaration of union type or object of union type: '{...}'.<br>
  48:Drivers/CMSIS/Include/core_cm0.h ****      Unions are used for effective representation of core registers.
  49:Drivers/CMSIS/Include/core_cm0.h **** 
  50:Drivers/CMSIS/Include/core_cm0.h ****    \li Advisory Rule 19.7, Function-like macro defined.<br>
  51:Drivers/CMSIS/Include/core_cm0.h ****      Function-like macros are used to allow more efficient code.
  52:Drivers/CMSIS/Include/core_cm0.h ****  */
  53:Drivers/CMSIS/Include/core_cm0.h **** 
  54:Drivers/CMSIS/Include/core_cm0.h **** 
  55:Drivers/CMSIS/Include/core_cm0.h **** /*******************************************************************************
  56:Drivers/CMSIS/Include/core_cm0.h ****  *                 CMSIS definitions
  57:Drivers/CMSIS/Include/core_cm0.h ****  ******************************************************************************/
  58:Drivers/CMSIS/Include/core_cm0.h **** /**
  59:Drivers/CMSIS/Include/core_cm0.h ****   \ingroup Cortex_M0
  60:Drivers/CMSIS/Include/core_cm0.h ****   @{
  61:Drivers/CMSIS/Include/core_cm0.h ****  */
  62:Drivers/CMSIS/Include/core_cm0.h **** 
  63:Drivers/CMSIS/Include/core_cm0.h **** #include "cmsis_version.h"
  64:Drivers/CMSIS/Include/core_cm0.h ****  
  65:Drivers/CMSIS/Include/core_cm0.h **** /*  CMSIS CM0 definitions */
  66:Drivers/CMSIS/Include/core_cm0.h **** #define __CM0_CMSIS_VERSION_MAIN  (__CM_CMSIS_VERSION_MAIN)              /*!< \deprecated [31:16] C
  67:Drivers/CMSIS/Include/core_cm0.h **** #define __CM0_CMSIS_VERSION_SUB   (__CM_CMSIS_VERSION_SUB)               /*!< \deprecated [15:0]  C
  68:Drivers/CMSIS/Include/core_cm0.h **** #define __CM0_CMSIS_VERSION       ((__CM0_CMSIS_VERSION_MAIN << 16U) | \
  69:Drivers/CMSIS/Include/core_cm0.h ****                                     __CM0_CMSIS_VERSION_SUB           )  /*!< \deprecated CMSIS HAL
  70:Drivers/CMSIS/Include/core_cm0.h **** 
  71:Drivers/CMSIS/Include/core_cm0.h **** #define __CORTEX_M                (0U)                                   /*!< Cortex-M Core */
  72:Drivers/CMSIS/Include/core_cm0.h **** 
  73:Drivers/CMSIS/Include/core_cm0.h **** /** __FPU_USED indicates whether an FPU is used or not.
  74:Drivers/CMSIS/Include/core_cm0.h ****     This core does not support an FPU at all
  75:Drivers/CMSIS/Include/core_cm0.h **** */
  76:Drivers/CMSIS/Include/core_cm0.h **** #define __FPU_USED       0U
  77:Drivers/CMSIS/Include/core_cm0.h **** 
  78:Drivers/CMSIS/Include/core_cm0.h **** #if defined ( __CC_ARM )
  79:Drivers/CMSIS/Include/core_cm0.h ****   #if defined __TARGET_FPU_VFP
  80:Drivers/CMSIS/Include/core_cm0.h ****     #error "Compiler generates FPU instructions for a device without an FPU (check __FPU_PRESENT)"
  81:Drivers/CMSIS/Include/core_cm0.h ****   #endif
  82:Drivers/CMSIS/Include/core_cm0.h **** 
  83:Drivers/CMSIS/Include/core_cm0.h **** #elif defined (__ARMCC_VERSION) && (__ARMCC_VERSION >= 6010050)
  84:Drivers/CMSIS/Include/core_cm0.h ****   #if defined __ARM_PCS_VFP
  85:Drivers/CMSIS/Include/core_cm0.h ****     #error "Compiler generates FPU instructions for a device without an FPU (check __FPU_PRESENT)"
  86:Drivers/CMSIS/Include/core_cm0.h ****   #endif
ARM GAS  C:\Users\vuyani\AppData\Local\Temp\ccwdY4Wa.s 			page 42


  87:Drivers/CMSIS/Include/core_cm0.h **** 
  88:Drivers/CMSIS/Include/core_cm0.h **** #elif defined ( __GNUC__ )
  89:Drivers/CMSIS/Include/core_cm0.h ****   #if defined (__VFP_FP__) && !defined(__SOFTFP__)
  90:Drivers/CMSIS/Include/core_cm0.h ****     #error "Compiler generates FPU instructions for a device without an FPU (check __FPU_PRESENT)"
  91:Drivers/CMSIS/Include/core_cm0.h ****   #endif
  92:Drivers/CMSIS/Include/core_cm0.h **** 
  93:Drivers/CMSIS/Include/core_cm0.h **** #elif defined ( __ICCARM__ )
  94:Drivers/CMSIS/Include/core_cm0.h ****   #if defined __ARMVFP__
  95:Drivers/CMSIS/Include/core_cm0.h ****     #error "Compiler generates FPU instructions for a device without an FPU (check __FPU_PRESENT)"
  96:Drivers/CMSIS/Include/core_cm0.h ****   #endif
  97:Drivers/CMSIS/Include/core_cm0.h **** 
  98:Drivers/CMSIS/Include/core_cm0.h **** #elif defined ( __TI_ARM__ )
  99:Drivers/CMSIS/Include/core_cm0.h ****   #if defined __TI_VFP_SUPPORT__
 100:Drivers/CMSIS/Include/core_cm0.h ****     #error "Compiler generates FPU instructions for a device without an FPU (check __FPU_PRESENT)"
 101:Drivers/CMSIS/Include/core_cm0.h ****   #endif
 102:Drivers/CMSIS/Include/core_cm0.h **** 
 103:Drivers/CMSIS/Include/core_cm0.h **** #elif defined ( __TASKING__ )
 104:Drivers/CMSIS/Include/core_cm0.h ****   #if defined __FPU_VFP__
 105:Drivers/CMSIS/Include/core_cm0.h ****     #error "Compiler generates FPU instructions for a device without an FPU (check __FPU_PRESENT)"
 106:Drivers/CMSIS/Include/core_cm0.h ****   #endif
 107:Drivers/CMSIS/Include/core_cm0.h **** 
 108:Drivers/CMSIS/Include/core_cm0.h **** #elif defined ( __CSMC__ )
 109:Drivers/CMSIS/Include/core_cm0.h ****   #if ( __CSMC__ & 0x400U)
 110:Drivers/CMSIS/Include/core_cm0.h ****     #error "Compiler generates FPU instructions for a device without an FPU (check __FPU_PRESENT)"
 111:Drivers/CMSIS/Include/core_cm0.h ****   #endif
 112:Drivers/CMSIS/Include/core_cm0.h **** 
 113:Drivers/CMSIS/Include/core_cm0.h **** #endif
 114:Drivers/CMSIS/Include/core_cm0.h **** 
 115:Drivers/CMSIS/Include/core_cm0.h **** #include "cmsis_compiler.h"               /* CMSIS compiler specific defines */
 116:Drivers/CMSIS/Include/core_cm0.h **** 
 117:Drivers/CMSIS/Include/core_cm0.h **** 
 118:Drivers/CMSIS/Include/core_cm0.h **** #ifdef __cplusplus
 119:Drivers/CMSIS/Include/core_cm0.h **** }
 120:Drivers/CMSIS/Include/core_cm0.h **** #endif
 121:Drivers/CMSIS/Include/core_cm0.h **** 
 122:Drivers/CMSIS/Include/core_cm0.h **** #endif /* __CORE_CM0_H_GENERIC */
 123:Drivers/CMSIS/Include/core_cm0.h **** 
 124:Drivers/CMSIS/Include/core_cm0.h **** #ifndef __CMSIS_GENERIC
 125:Drivers/CMSIS/Include/core_cm0.h **** 
 126:Drivers/CMSIS/Include/core_cm0.h **** #ifndef __CORE_CM0_H_DEPENDANT
 127:Drivers/CMSIS/Include/core_cm0.h **** #define __CORE_CM0_H_DEPENDANT
 128:Drivers/CMSIS/Include/core_cm0.h **** 
 129:Drivers/CMSIS/Include/core_cm0.h **** #ifdef __cplusplus
 130:Drivers/CMSIS/Include/core_cm0.h ****  extern "C" {
 131:Drivers/CMSIS/Include/core_cm0.h **** #endif
 132:Drivers/CMSIS/Include/core_cm0.h **** 
 133:Drivers/CMSIS/Include/core_cm0.h **** /* check device defines and use defaults */
 134:Drivers/CMSIS/Include/core_cm0.h **** #if defined __CHECK_DEVICE_DEFINES
 135:Drivers/CMSIS/Include/core_cm0.h ****   #ifndef __CM0_REV
 136:Drivers/CMSIS/Include/core_cm0.h ****     #define __CM0_REV               0x0000U
 137:Drivers/CMSIS/Include/core_cm0.h ****     #warning "__CM0_REV not defined in device header file; using default!"
 138:Drivers/CMSIS/Include/core_cm0.h ****   #endif
 139:Drivers/CMSIS/Include/core_cm0.h **** 
 140:Drivers/CMSIS/Include/core_cm0.h ****   #ifndef __NVIC_PRIO_BITS
 141:Drivers/CMSIS/Include/core_cm0.h ****     #define __NVIC_PRIO_BITS          2U
 142:Drivers/CMSIS/Include/core_cm0.h ****     #warning "__NVIC_PRIO_BITS not defined in device header file; using default!"
 143:Drivers/CMSIS/Include/core_cm0.h ****   #endif
ARM GAS  C:\Users\vuyani\AppData\Local\Temp\ccwdY4Wa.s 			page 43


 144:Drivers/CMSIS/Include/core_cm0.h **** 
 145:Drivers/CMSIS/Include/core_cm0.h ****   #ifndef __Vendor_SysTickConfig
 146:Drivers/CMSIS/Include/core_cm0.h ****     #define __Vendor_SysTickConfig    0U
 147:Drivers/CMSIS/Include/core_cm0.h ****     #warning "__Vendor_SysTickConfig not defined in device header file; using default!"
 148:Drivers/CMSIS/Include/core_cm0.h ****   #endif
 149:Drivers/CMSIS/Include/core_cm0.h **** #endif
 150:Drivers/CMSIS/Include/core_cm0.h **** 
 151:Drivers/CMSIS/Include/core_cm0.h **** /* IO definitions (access restrictions to peripheral registers) */
 152:Drivers/CMSIS/Include/core_cm0.h **** /**
 153:Drivers/CMSIS/Include/core_cm0.h ****     \defgroup CMSIS_glob_defs CMSIS Global Defines
 154:Drivers/CMSIS/Include/core_cm0.h **** 
 155:Drivers/CMSIS/Include/core_cm0.h ****     <strong>IO Type Qualifiers</strong> are used
 156:Drivers/CMSIS/Include/core_cm0.h ****     \li to specify the access to peripheral variables.
 157:Drivers/CMSIS/Include/core_cm0.h ****     \li for automatic generation of peripheral register debug information.
 158:Drivers/CMSIS/Include/core_cm0.h **** */
 159:Drivers/CMSIS/Include/core_cm0.h **** #ifdef __cplusplus
 160:Drivers/CMSIS/Include/core_cm0.h ****   #define   __I     volatile             /*!< Defines 'read only' permissions */
 161:Drivers/CMSIS/Include/core_cm0.h **** #else
 162:Drivers/CMSIS/Include/core_cm0.h ****   #define   __I     volatile const       /*!< Defines 'read only' permissions */
 163:Drivers/CMSIS/Include/core_cm0.h **** #endif
 164:Drivers/CMSIS/Include/core_cm0.h **** #define     __O     volatile             /*!< Defines 'write only' permissions */
 165:Drivers/CMSIS/Include/core_cm0.h **** #define     __IO    volatile             /*!< Defines 'read / write' permissions */
 166:Drivers/CMSIS/Include/core_cm0.h **** 
 167:Drivers/CMSIS/Include/core_cm0.h **** /* following defines should be used for structure members */
 168:Drivers/CMSIS/Include/core_cm0.h **** #define     __IM     volatile const      /*! Defines 'read only' structure member permissions */
 169:Drivers/CMSIS/Include/core_cm0.h **** #define     __OM     volatile            /*! Defines 'write only' structure member permissions */
 170:Drivers/CMSIS/Include/core_cm0.h **** #define     __IOM    volatile            /*! Defines 'read / write' structure member permissions */
 171:Drivers/CMSIS/Include/core_cm0.h **** 
 172:Drivers/CMSIS/Include/core_cm0.h **** /*@} end of group Cortex_M0 */
 173:Drivers/CMSIS/Include/core_cm0.h **** 
 174:Drivers/CMSIS/Include/core_cm0.h **** 
 175:Drivers/CMSIS/Include/core_cm0.h **** 
 176:Drivers/CMSIS/Include/core_cm0.h **** /*******************************************************************************
 177:Drivers/CMSIS/Include/core_cm0.h ****  *                 Register Abstraction
 178:Drivers/CMSIS/Include/core_cm0.h ****   Core Register contain:
 179:Drivers/CMSIS/Include/core_cm0.h ****   - Core Register
 180:Drivers/CMSIS/Include/core_cm0.h ****   - Core NVIC Register
 181:Drivers/CMSIS/Include/core_cm0.h ****   - Core SCB Register
 182:Drivers/CMSIS/Include/core_cm0.h ****   - Core SysTick Register
 183:Drivers/CMSIS/Include/core_cm0.h ****  ******************************************************************************/
 184:Drivers/CMSIS/Include/core_cm0.h **** /**
 185:Drivers/CMSIS/Include/core_cm0.h ****   \defgroup CMSIS_core_register Defines and Type Definitions
 186:Drivers/CMSIS/Include/core_cm0.h ****   \brief Type definitions and defines for Cortex-M processor based devices.
 187:Drivers/CMSIS/Include/core_cm0.h **** */
 188:Drivers/CMSIS/Include/core_cm0.h **** 
 189:Drivers/CMSIS/Include/core_cm0.h **** /**
 190:Drivers/CMSIS/Include/core_cm0.h ****   \ingroup    CMSIS_core_register
 191:Drivers/CMSIS/Include/core_cm0.h ****   \defgroup   CMSIS_CORE  Status and Control Registers
 192:Drivers/CMSIS/Include/core_cm0.h ****   \brief      Core Register type definitions.
 193:Drivers/CMSIS/Include/core_cm0.h ****   @{
 194:Drivers/CMSIS/Include/core_cm0.h ****  */
 195:Drivers/CMSIS/Include/core_cm0.h **** 
 196:Drivers/CMSIS/Include/core_cm0.h **** /**
 197:Drivers/CMSIS/Include/core_cm0.h ****   \brief  Union type to access the Application Program Status Register (APSR).
 198:Drivers/CMSIS/Include/core_cm0.h ****  */
 199:Drivers/CMSIS/Include/core_cm0.h **** typedef union
 200:Drivers/CMSIS/Include/core_cm0.h **** {
ARM GAS  C:\Users\vuyani\AppData\Local\Temp\ccwdY4Wa.s 			page 44


 201:Drivers/CMSIS/Include/core_cm0.h ****   struct
 202:Drivers/CMSIS/Include/core_cm0.h ****   {
 203:Drivers/CMSIS/Include/core_cm0.h ****     uint32_t _reserved0:28;              /*!< bit:  0..27  Reserved */
 204:Drivers/CMSIS/Include/core_cm0.h ****     uint32_t V:1;                        /*!< bit:     28  Overflow condition code flag */
 205:Drivers/CMSIS/Include/core_cm0.h ****     uint32_t C:1;                        /*!< bit:     29  Carry condition code flag */
 206:Drivers/CMSIS/Include/core_cm0.h ****     uint32_t Z:1;                        /*!< bit:     30  Zero condition code flag */
 207:Drivers/CMSIS/Include/core_cm0.h ****     uint32_t N:1;                        /*!< bit:     31  Negative condition code flag */
 208:Drivers/CMSIS/Include/core_cm0.h ****   } b;                                   /*!< Structure used for bit  access */
 209:Drivers/CMSIS/Include/core_cm0.h ****   uint32_t w;                            /*!< Type      used for word access */
 210:Drivers/CMSIS/Include/core_cm0.h **** } APSR_Type;
 211:Drivers/CMSIS/Include/core_cm0.h **** 
 212:Drivers/CMSIS/Include/core_cm0.h **** /* APSR Register Definitions */
 213:Drivers/CMSIS/Include/core_cm0.h **** #define APSR_N_Pos                         31U                                            /*!< APSR
 214:Drivers/CMSIS/Include/core_cm0.h **** #define APSR_N_Msk                         (1UL << APSR_N_Pos)                            /*!< APSR
 215:Drivers/CMSIS/Include/core_cm0.h **** 
 216:Drivers/CMSIS/Include/core_cm0.h **** #define APSR_Z_Pos                         30U                                            /*!< APSR
 217:Drivers/CMSIS/Include/core_cm0.h **** #define APSR_Z_Msk                         (1UL << APSR_Z_Pos)                            /*!< APSR
 218:Drivers/CMSIS/Include/core_cm0.h **** 
 219:Drivers/CMSIS/Include/core_cm0.h **** #define APSR_C_Pos                         29U                                            /*!< APSR
 220:Drivers/CMSIS/Include/core_cm0.h **** #define APSR_C_Msk                         (1UL << APSR_C_Pos)                            /*!< APSR
 221:Drivers/CMSIS/Include/core_cm0.h **** 
 222:Drivers/CMSIS/Include/core_cm0.h **** #define APSR_V_Pos                         28U                                            /*!< APSR
 223:Drivers/CMSIS/Include/core_cm0.h **** #define APSR_V_Msk                         (1UL << APSR_V_Pos)                            /*!< APSR
 224:Drivers/CMSIS/Include/core_cm0.h **** 
 225:Drivers/CMSIS/Include/core_cm0.h **** 
 226:Drivers/CMSIS/Include/core_cm0.h **** /**
 227:Drivers/CMSIS/Include/core_cm0.h ****   \brief  Union type to access the Interrupt Program Status Register (IPSR).
 228:Drivers/CMSIS/Include/core_cm0.h ****  */
 229:Drivers/CMSIS/Include/core_cm0.h **** typedef union
 230:Drivers/CMSIS/Include/core_cm0.h **** {
 231:Drivers/CMSIS/Include/core_cm0.h ****   struct
 232:Drivers/CMSIS/Include/core_cm0.h ****   {
 233:Drivers/CMSIS/Include/core_cm0.h ****     uint32_t ISR:9;                      /*!< bit:  0.. 8  Exception number */
 234:Drivers/CMSIS/Include/core_cm0.h ****     uint32_t _reserved0:23;              /*!< bit:  9..31  Reserved */
 235:Drivers/CMSIS/Include/core_cm0.h ****   } b;                                   /*!< Structure used for bit  access */
 236:Drivers/CMSIS/Include/core_cm0.h ****   uint32_t w;                            /*!< Type      used for word access */
 237:Drivers/CMSIS/Include/core_cm0.h **** } IPSR_Type;
 238:Drivers/CMSIS/Include/core_cm0.h **** 
 239:Drivers/CMSIS/Include/core_cm0.h **** /* IPSR Register Definitions */
 240:Drivers/CMSIS/Include/core_cm0.h **** #define IPSR_ISR_Pos                        0U                                            /*!< IPSR
 241:Drivers/CMSIS/Include/core_cm0.h **** #define IPSR_ISR_Msk                       (0x1FFUL /*<< IPSR_ISR_Pos*/)                  /*!< IPSR
 242:Drivers/CMSIS/Include/core_cm0.h **** 
 243:Drivers/CMSIS/Include/core_cm0.h **** 
 244:Drivers/CMSIS/Include/core_cm0.h **** /**
 245:Drivers/CMSIS/Include/core_cm0.h ****   \brief  Union type to access the Special-Purpose Program Status Registers (xPSR).
 246:Drivers/CMSIS/Include/core_cm0.h ****  */
 247:Drivers/CMSIS/Include/core_cm0.h **** typedef union
 248:Drivers/CMSIS/Include/core_cm0.h **** {
 249:Drivers/CMSIS/Include/core_cm0.h ****   struct
 250:Drivers/CMSIS/Include/core_cm0.h ****   {
 251:Drivers/CMSIS/Include/core_cm0.h ****     uint32_t ISR:9;                      /*!< bit:  0.. 8  Exception number */
 252:Drivers/CMSIS/Include/core_cm0.h ****     uint32_t _reserved0:15;              /*!< bit:  9..23  Reserved */
 253:Drivers/CMSIS/Include/core_cm0.h ****     uint32_t T:1;                        /*!< bit:     24  Thumb bit        (read 0) */
 254:Drivers/CMSIS/Include/core_cm0.h ****     uint32_t _reserved1:3;               /*!< bit: 25..27  Reserved */
 255:Drivers/CMSIS/Include/core_cm0.h ****     uint32_t V:1;                        /*!< bit:     28  Overflow condition code flag */
 256:Drivers/CMSIS/Include/core_cm0.h ****     uint32_t C:1;                        /*!< bit:     29  Carry condition code flag */
 257:Drivers/CMSIS/Include/core_cm0.h ****     uint32_t Z:1;                        /*!< bit:     30  Zero condition code flag */
ARM GAS  C:\Users\vuyani\AppData\Local\Temp\ccwdY4Wa.s 			page 45


 258:Drivers/CMSIS/Include/core_cm0.h ****     uint32_t N:1;                        /*!< bit:     31  Negative condition code flag */
 259:Drivers/CMSIS/Include/core_cm0.h ****   } b;                                   /*!< Structure used for bit  access */
 260:Drivers/CMSIS/Include/core_cm0.h ****   uint32_t w;                            /*!< Type      used for word access */
 261:Drivers/CMSIS/Include/core_cm0.h **** } xPSR_Type;
 262:Drivers/CMSIS/Include/core_cm0.h **** 
 263:Drivers/CMSIS/Include/core_cm0.h **** /* xPSR Register Definitions */
 264:Drivers/CMSIS/Include/core_cm0.h **** #define xPSR_N_Pos                         31U                                            /*!< xPSR
 265:Drivers/CMSIS/Include/core_cm0.h **** #define xPSR_N_Msk                         (1UL << xPSR_N_Pos)                            /*!< xPSR
 266:Drivers/CMSIS/Include/core_cm0.h **** 
 267:Drivers/CMSIS/Include/core_cm0.h **** #define xPSR_Z_Pos                         30U                                            /*!< xPSR
 268:Drivers/CMSIS/Include/core_cm0.h **** #define xPSR_Z_Msk                         (1UL << xPSR_Z_Pos)                            /*!< xPSR
 269:Drivers/CMSIS/Include/core_cm0.h **** 
 270:Drivers/CMSIS/Include/core_cm0.h **** #define xPSR_C_Pos                         29U                                            /*!< xPSR
 271:Drivers/CMSIS/Include/core_cm0.h **** #define xPSR_C_Msk                         (1UL << xPSR_C_Pos)                            /*!< xPSR
 272:Drivers/CMSIS/Include/core_cm0.h **** 
 273:Drivers/CMSIS/Include/core_cm0.h **** #define xPSR_V_Pos                         28U                                            /*!< xPSR
 274:Drivers/CMSIS/Include/core_cm0.h **** #define xPSR_V_Msk                         (1UL << xPSR_V_Pos)                            /*!< xPSR
 275:Drivers/CMSIS/Include/core_cm0.h **** 
 276:Drivers/CMSIS/Include/core_cm0.h **** #define xPSR_T_Pos                         24U                                            /*!< xPSR
 277:Drivers/CMSIS/Include/core_cm0.h **** #define xPSR_T_Msk                         (1UL << xPSR_T_Pos)                            /*!< xPSR
 278:Drivers/CMSIS/Include/core_cm0.h **** 
 279:Drivers/CMSIS/Include/core_cm0.h **** #define xPSR_ISR_Pos                        0U                                            /*!< xPSR
 280:Drivers/CMSIS/Include/core_cm0.h **** #define xPSR_ISR_Msk                       (0x1FFUL /*<< xPSR_ISR_Pos*/)                  /*!< xPSR
 281:Drivers/CMSIS/Include/core_cm0.h **** 
 282:Drivers/CMSIS/Include/core_cm0.h **** 
 283:Drivers/CMSIS/Include/core_cm0.h **** /**
 284:Drivers/CMSIS/Include/core_cm0.h ****   \brief  Union type to access the Control Registers (CONTROL).
 285:Drivers/CMSIS/Include/core_cm0.h ****  */
 286:Drivers/CMSIS/Include/core_cm0.h **** typedef union
 287:Drivers/CMSIS/Include/core_cm0.h **** {
 288:Drivers/CMSIS/Include/core_cm0.h ****   struct
 289:Drivers/CMSIS/Include/core_cm0.h ****   {
 290:Drivers/CMSIS/Include/core_cm0.h ****     uint32_t _reserved0:1;               /*!< bit:      0  Reserved */
 291:Drivers/CMSIS/Include/core_cm0.h ****     uint32_t SPSEL:1;                    /*!< bit:      1  Stack to be used */
 292:Drivers/CMSIS/Include/core_cm0.h ****     uint32_t _reserved1:30;              /*!< bit:  2..31  Reserved */
 293:Drivers/CMSIS/Include/core_cm0.h ****   } b;                                   /*!< Structure used for bit  access */
 294:Drivers/CMSIS/Include/core_cm0.h ****   uint32_t w;                            /*!< Type      used for word access */
 295:Drivers/CMSIS/Include/core_cm0.h **** } CONTROL_Type;
 296:Drivers/CMSIS/Include/core_cm0.h **** 
 297:Drivers/CMSIS/Include/core_cm0.h **** /* CONTROL Register Definitions */
 298:Drivers/CMSIS/Include/core_cm0.h **** #define CONTROL_SPSEL_Pos                   1U                                            /*!< CONT
 299:Drivers/CMSIS/Include/core_cm0.h **** #define CONTROL_SPSEL_Msk                  (1UL << CONTROL_SPSEL_Pos)                     /*!< CONT
 300:Drivers/CMSIS/Include/core_cm0.h **** 
 301:Drivers/CMSIS/Include/core_cm0.h **** /*@} end of group CMSIS_CORE */
 302:Drivers/CMSIS/Include/core_cm0.h **** 
 303:Drivers/CMSIS/Include/core_cm0.h **** 
 304:Drivers/CMSIS/Include/core_cm0.h **** /**
 305:Drivers/CMSIS/Include/core_cm0.h ****   \ingroup    CMSIS_core_register
 306:Drivers/CMSIS/Include/core_cm0.h ****   \defgroup   CMSIS_NVIC  Nested Vectored Interrupt Controller (NVIC)
 307:Drivers/CMSIS/Include/core_cm0.h ****   \brief      Type definitions for the NVIC Registers
 308:Drivers/CMSIS/Include/core_cm0.h ****   @{
 309:Drivers/CMSIS/Include/core_cm0.h ****  */
 310:Drivers/CMSIS/Include/core_cm0.h **** 
 311:Drivers/CMSIS/Include/core_cm0.h **** /**
 312:Drivers/CMSIS/Include/core_cm0.h ****   \brief  Structure type to access the Nested Vectored Interrupt Controller (NVIC).
 313:Drivers/CMSIS/Include/core_cm0.h ****  */
 314:Drivers/CMSIS/Include/core_cm0.h **** typedef struct
ARM GAS  C:\Users\vuyani\AppData\Local\Temp\ccwdY4Wa.s 			page 46


 315:Drivers/CMSIS/Include/core_cm0.h **** {
 316:Drivers/CMSIS/Include/core_cm0.h ****   __IOM uint32_t ISER[1U];               /*!< Offset: 0x000 (R/W)  Interrupt Set Enable Register */
 317:Drivers/CMSIS/Include/core_cm0.h ****         uint32_t RESERVED0[31U];
 318:Drivers/CMSIS/Include/core_cm0.h ****   __IOM uint32_t ICER[1U];               /*!< Offset: 0x080 (R/W)  Interrupt Clear Enable Register 
 319:Drivers/CMSIS/Include/core_cm0.h ****         uint32_t RSERVED1[31U];
 320:Drivers/CMSIS/Include/core_cm0.h ****   __IOM uint32_t ISPR[1U];               /*!< Offset: 0x100 (R/W)  Interrupt Set Pending Register *
 321:Drivers/CMSIS/Include/core_cm0.h ****         uint32_t RESERVED2[31U];
 322:Drivers/CMSIS/Include/core_cm0.h ****   __IOM uint32_t ICPR[1U];               /*!< Offset: 0x180 (R/W)  Interrupt Clear Pending Register
 323:Drivers/CMSIS/Include/core_cm0.h ****         uint32_t RESERVED3[31U];
 324:Drivers/CMSIS/Include/core_cm0.h ****         uint32_t RESERVED4[64U];
 325:Drivers/CMSIS/Include/core_cm0.h ****   __IOM uint32_t IP[8U];                 /*!< Offset: 0x300 (R/W)  Interrupt Priority Register */
 326:Drivers/CMSIS/Include/core_cm0.h **** }  NVIC_Type;
 327:Drivers/CMSIS/Include/core_cm0.h **** 
 328:Drivers/CMSIS/Include/core_cm0.h **** /*@} end of group CMSIS_NVIC */
 329:Drivers/CMSIS/Include/core_cm0.h **** 
 330:Drivers/CMSIS/Include/core_cm0.h **** 
 331:Drivers/CMSIS/Include/core_cm0.h **** /**
 332:Drivers/CMSIS/Include/core_cm0.h ****   \ingroup  CMSIS_core_register
 333:Drivers/CMSIS/Include/core_cm0.h ****   \defgroup CMSIS_SCB     System Control Block (SCB)
 334:Drivers/CMSIS/Include/core_cm0.h ****   \brief    Type definitions for the System Control Block Registers
 335:Drivers/CMSIS/Include/core_cm0.h ****   @{
 336:Drivers/CMSIS/Include/core_cm0.h ****  */
 337:Drivers/CMSIS/Include/core_cm0.h **** 
 338:Drivers/CMSIS/Include/core_cm0.h **** /**
 339:Drivers/CMSIS/Include/core_cm0.h ****   \brief  Structure type to access the System Control Block (SCB).
 340:Drivers/CMSIS/Include/core_cm0.h ****  */
 341:Drivers/CMSIS/Include/core_cm0.h **** typedef struct
 342:Drivers/CMSIS/Include/core_cm0.h **** {
 343:Drivers/CMSIS/Include/core_cm0.h ****   __IM  uint32_t CPUID;                  /*!< Offset: 0x000 (R/ )  CPUID Base Register */
 344:Drivers/CMSIS/Include/core_cm0.h ****   __IOM uint32_t ICSR;                   /*!< Offset: 0x004 (R/W)  Interrupt Control and State Regi
 345:Drivers/CMSIS/Include/core_cm0.h ****         uint32_t RESERVED0;
 346:Drivers/CMSIS/Include/core_cm0.h ****   __IOM uint32_t AIRCR;                  /*!< Offset: 0x00C (R/W)  Application Interrupt and Reset 
 347:Drivers/CMSIS/Include/core_cm0.h ****   __IOM uint32_t SCR;                    /*!< Offset: 0x010 (R/W)  System Control Register */
 348:Drivers/CMSIS/Include/core_cm0.h ****   __IOM uint32_t CCR;                    /*!< Offset: 0x014 (R/W)  Configuration Control Register *
 349:Drivers/CMSIS/Include/core_cm0.h ****         uint32_t RESERVED1;
 350:Drivers/CMSIS/Include/core_cm0.h ****   __IOM uint32_t SHP[2U];                /*!< Offset: 0x01C (R/W)  System Handlers Priority Registe
 351:Drivers/CMSIS/Include/core_cm0.h ****   __IOM uint32_t SHCSR;                  /*!< Offset: 0x024 (R/W)  System Handler Control and State
 352:Drivers/CMSIS/Include/core_cm0.h **** } SCB_Type;
 353:Drivers/CMSIS/Include/core_cm0.h **** 
 354:Drivers/CMSIS/Include/core_cm0.h **** /* SCB CPUID Register Definitions */
 355:Drivers/CMSIS/Include/core_cm0.h **** #define SCB_CPUID_IMPLEMENTER_Pos          24U                                            /*!< SCB 
 356:Drivers/CMSIS/Include/core_cm0.h **** #define SCB_CPUID_IMPLEMENTER_Msk          (0xFFUL << SCB_CPUID_IMPLEMENTER_Pos)          /*!< SCB 
 357:Drivers/CMSIS/Include/core_cm0.h **** 
 358:Drivers/CMSIS/Include/core_cm0.h **** #define SCB_CPUID_VARIANT_Pos              20U                                            /*!< SCB 
 359:Drivers/CMSIS/Include/core_cm0.h **** #define SCB_CPUID_VARIANT_Msk              (0xFUL << SCB_CPUID_VARIANT_Pos)               /*!< SCB 
 360:Drivers/CMSIS/Include/core_cm0.h **** 
 361:Drivers/CMSIS/Include/core_cm0.h **** #define SCB_CPUID_ARCHITECTURE_Pos         16U                                            /*!< SCB 
 362:Drivers/CMSIS/Include/core_cm0.h **** #define SCB_CPUID_ARCHITECTURE_Msk         (0xFUL << SCB_CPUID_ARCHITECTURE_Pos)          /*!< SCB 
 363:Drivers/CMSIS/Include/core_cm0.h **** 
 364:Drivers/CMSIS/Include/core_cm0.h **** #define SCB_CPUID_PARTNO_Pos                4U                                            /*!< SCB 
 365:Drivers/CMSIS/Include/core_cm0.h **** #define SCB_CPUID_PARTNO_Msk               (0xFFFUL << SCB_CPUID_PARTNO_Pos)              /*!< SCB 
 366:Drivers/CMSIS/Include/core_cm0.h **** 
 367:Drivers/CMSIS/Include/core_cm0.h **** #define SCB_CPUID_REVISION_Pos              0U                                            /*!< SCB 
 368:Drivers/CMSIS/Include/core_cm0.h **** #define SCB_CPUID_REVISION_Msk             (0xFUL /*<< SCB_CPUID_REVISION_Pos*/)          /*!< SCB 
 369:Drivers/CMSIS/Include/core_cm0.h **** 
 370:Drivers/CMSIS/Include/core_cm0.h **** /* SCB Interrupt Control State Register Definitions */
 371:Drivers/CMSIS/Include/core_cm0.h **** #define SCB_ICSR_NMIPENDSET_Pos            31U                                            /*!< SCB 
ARM GAS  C:\Users\vuyani\AppData\Local\Temp\ccwdY4Wa.s 			page 47


 372:Drivers/CMSIS/Include/core_cm0.h **** #define SCB_ICSR_NMIPENDSET_Msk            (1UL << SCB_ICSR_NMIPENDSET_Pos)               /*!< SCB 
 373:Drivers/CMSIS/Include/core_cm0.h **** 
 374:Drivers/CMSIS/Include/core_cm0.h **** #define SCB_ICSR_PENDSVSET_Pos             28U                                            /*!< SCB 
 375:Drivers/CMSIS/Include/core_cm0.h **** #define SCB_ICSR_PENDSVSET_Msk             (1UL << SCB_ICSR_PENDSVSET_Pos)                /*!< SCB 
 376:Drivers/CMSIS/Include/core_cm0.h **** 
 377:Drivers/CMSIS/Include/core_cm0.h **** #define SCB_ICSR_PENDSVCLR_Pos             27U                                            /*!< SCB 
 378:Drivers/CMSIS/Include/core_cm0.h **** #define SCB_ICSR_PENDSVCLR_Msk             (1UL << SCB_ICSR_PENDSVCLR_Pos)                /*!< SCB 
 379:Drivers/CMSIS/Include/core_cm0.h **** 
 380:Drivers/CMSIS/Include/core_cm0.h **** #define SCB_ICSR_PENDSTSET_Pos             26U                                            /*!< SCB 
 381:Drivers/CMSIS/Include/core_cm0.h **** #define SCB_ICSR_PENDSTSET_Msk             (1UL << SCB_ICSR_PENDSTSET_Pos)                /*!< SCB 
 382:Drivers/CMSIS/Include/core_cm0.h **** 
 383:Drivers/CMSIS/Include/core_cm0.h **** #define SCB_ICSR_PENDSTCLR_Pos             25U                                            /*!< SCB 
 384:Drivers/CMSIS/Include/core_cm0.h **** #define SCB_ICSR_PENDSTCLR_Msk             (1UL << SCB_ICSR_PENDSTCLR_Pos)                /*!< SCB 
 385:Drivers/CMSIS/Include/core_cm0.h **** 
 386:Drivers/CMSIS/Include/core_cm0.h **** #define SCB_ICSR_ISRPREEMPT_Pos            23U                                            /*!< SCB 
 387:Drivers/CMSIS/Include/core_cm0.h **** #define SCB_ICSR_ISRPREEMPT_Msk            (1UL << SCB_ICSR_ISRPREEMPT_Pos)               /*!< SCB 
 388:Drivers/CMSIS/Include/core_cm0.h **** 
 389:Drivers/CMSIS/Include/core_cm0.h **** #define SCB_ICSR_ISRPENDING_Pos            22U                                            /*!< SCB 
 390:Drivers/CMSIS/Include/core_cm0.h **** #define SCB_ICSR_ISRPENDING_Msk            (1UL << SCB_ICSR_ISRPENDING_Pos)               /*!< SCB 
 391:Drivers/CMSIS/Include/core_cm0.h **** 
 392:Drivers/CMSIS/Include/core_cm0.h **** #define SCB_ICSR_VECTPENDING_Pos           12U                                            /*!< SCB 
 393:Drivers/CMSIS/Include/core_cm0.h **** #define SCB_ICSR_VECTPENDING_Msk           (0x1FFUL << SCB_ICSR_VECTPENDING_Pos)          /*!< SCB 
 394:Drivers/CMSIS/Include/core_cm0.h **** 
 395:Drivers/CMSIS/Include/core_cm0.h **** #define SCB_ICSR_VECTACTIVE_Pos             0U                                            /*!< SCB 
 396:Drivers/CMSIS/Include/core_cm0.h **** #define SCB_ICSR_VECTACTIVE_Msk            (0x1FFUL /*<< SCB_ICSR_VECTACTIVE_Pos*/)       /*!< SCB 
 397:Drivers/CMSIS/Include/core_cm0.h **** 
 398:Drivers/CMSIS/Include/core_cm0.h **** /* SCB Application Interrupt and Reset Control Register Definitions */
 399:Drivers/CMSIS/Include/core_cm0.h **** #define SCB_AIRCR_VECTKEY_Pos              16U                                            /*!< SCB 
 400:Drivers/CMSIS/Include/core_cm0.h **** #define SCB_AIRCR_VECTKEY_Msk              (0xFFFFUL << SCB_AIRCR_VECTKEY_Pos)            /*!< SCB 
 401:Drivers/CMSIS/Include/core_cm0.h **** 
 402:Drivers/CMSIS/Include/core_cm0.h **** #define SCB_AIRCR_VECTKEYSTAT_Pos          16U                                            /*!< SCB 
 403:Drivers/CMSIS/Include/core_cm0.h **** #define SCB_AIRCR_VECTKEYSTAT_Msk          (0xFFFFUL << SCB_AIRCR_VECTKEYSTAT_Pos)        /*!< SCB 
 404:Drivers/CMSIS/Include/core_cm0.h **** 
 405:Drivers/CMSIS/Include/core_cm0.h **** #define SCB_AIRCR_ENDIANESS_Pos            15U                                            /*!< SCB 
 406:Drivers/CMSIS/Include/core_cm0.h **** #define SCB_AIRCR_ENDIANESS_Msk            (1UL << SCB_AIRCR_ENDIANESS_Pos)               /*!< SCB 
 407:Drivers/CMSIS/Include/core_cm0.h **** 
 408:Drivers/CMSIS/Include/core_cm0.h **** #define SCB_AIRCR_SYSRESETREQ_Pos           2U                                            /*!< SCB 
 409:Drivers/CMSIS/Include/core_cm0.h **** #define SCB_AIRCR_SYSRESETREQ_Msk          (1UL << SCB_AIRCR_SYSRESETREQ_Pos)             /*!< SCB 
 410:Drivers/CMSIS/Include/core_cm0.h **** 
 411:Drivers/CMSIS/Include/core_cm0.h **** #define SCB_AIRCR_VECTCLRACTIVE_Pos         1U                                            /*!< SCB 
 412:Drivers/CMSIS/Include/core_cm0.h **** #define SCB_AIRCR_VECTCLRACTIVE_Msk        (1UL << SCB_AIRCR_VECTCLRACTIVE_Pos)           /*!< SCB 
 413:Drivers/CMSIS/Include/core_cm0.h **** 
 414:Drivers/CMSIS/Include/core_cm0.h **** /* SCB System Control Register Definitions */
 415:Drivers/CMSIS/Include/core_cm0.h **** #define SCB_SCR_SEVONPEND_Pos               4U                                            /*!< SCB 
 416:Drivers/CMSIS/Include/core_cm0.h **** #define SCB_SCR_SEVONPEND_Msk              (1UL << SCB_SCR_SEVONPEND_Pos)                 /*!< SCB 
 417:Drivers/CMSIS/Include/core_cm0.h **** 
 418:Drivers/CMSIS/Include/core_cm0.h **** #define SCB_SCR_SLEEPDEEP_Pos               2U                                            /*!< SCB 
 419:Drivers/CMSIS/Include/core_cm0.h **** #define SCB_SCR_SLEEPDEEP_Msk              (1UL << SCB_SCR_SLEEPDEEP_Pos)                 /*!< SCB 
 420:Drivers/CMSIS/Include/core_cm0.h **** 
 421:Drivers/CMSIS/Include/core_cm0.h **** #define SCB_SCR_SLEEPONEXIT_Pos             1U                                            /*!< SCB 
 422:Drivers/CMSIS/Include/core_cm0.h **** #define SCB_SCR_SLEEPONEXIT_Msk            (1UL << SCB_SCR_SLEEPONEXIT_Pos)               /*!< SCB 
 423:Drivers/CMSIS/Include/core_cm0.h **** 
 424:Drivers/CMSIS/Include/core_cm0.h **** /* SCB Configuration Control Register Definitions */
 425:Drivers/CMSIS/Include/core_cm0.h **** #define SCB_CCR_STKALIGN_Pos                9U                                            /*!< SCB 
 426:Drivers/CMSIS/Include/core_cm0.h **** #define SCB_CCR_STKALIGN_Msk               (1UL << SCB_CCR_STKALIGN_Pos)                  /*!< SCB 
 427:Drivers/CMSIS/Include/core_cm0.h **** 
 428:Drivers/CMSIS/Include/core_cm0.h **** #define SCB_CCR_UNALIGN_TRP_Pos             3U                                            /*!< SCB 
ARM GAS  C:\Users\vuyani\AppData\Local\Temp\ccwdY4Wa.s 			page 48


 429:Drivers/CMSIS/Include/core_cm0.h **** #define SCB_CCR_UNALIGN_TRP_Msk            (1UL << SCB_CCR_UNALIGN_TRP_Pos)               /*!< SCB 
 430:Drivers/CMSIS/Include/core_cm0.h **** 
 431:Drivers/CMSIS/Include/core_cm0.h **** /* SCB System Handler Control and State Register Definitions */
 432:Drivers/CMSIS/Include/core_cm0.h **** #define SCB_SHCSR_SVCALLPENDED_Pos         15U                                            /*!< SCB 
 433:Drivers/CMSIS/Include/core_cm0.h **** #define SCB_SHCSR_SVCALLPENDED_Msk         (1UL << SCB_SHCSR_SVCALLPENDED_Pos)            /*!< SCB 
 434:Drivers/CMSIS/Include/core_cm0.h **** 
 435:Drivers/CMSIS/Include/core_cm0.h **** /*@} end of group CMSIS_SCB */
 436:Drivers/CMSIS/Include/core_cm0.h **** 
 437:Drivers/CMSIS/Include/core_cm0.h **** 
 438:Drivers/CMSIS/Include/core_cm0.h **** /**
 439:Drivers/CMSIS/Include/core_cm0.h ****   \ingroup  CMSIS_core_register
 440:Drivers/CMSIS/Include/core_cm0.h ****   \defgroup CMSIS_SysTick     System Tick Timer (SysTick)
 441:Drivers/CMSIS/Include/core_cm0.h ****   \brief    Type definitions for the System Timer Registers.
 442:Drivers/CMSIS/Include/core_cm0.h ****   @{
 443:Drivers/CMSIS/Include/core_cm0.h ****  */
 444:Drivers/CMSIS/Include/core_cm0.h **** 
 445:Drivers/CMSIS/Include/core_cm0.h **** /**
 446:Drivers/CMSIS/Include/core_cm0.h ****   \brief  Structure type to access the System Timer (SysTick).
 447:Drivers/CMSIS/Include/core_cm0.h ****  */
 448:Drivers/CMSIS/Include/core_cm0.h **** typedef struct
 449:Drivers/CMSIS/Include/core_cm0.h **** {
 450:Drivers/CMSIS/Include/core_cm0.h ****   __IOM uint32_t CTRL;                   /*!< Offset: 0x000 (R/W)  SysTick Control and Status Regis
 451:Drivers/CMSIS/Include/core_cm0.h ****   __IOM uint32_t LOAD;                   /*!< Offset: 0x004 (R/W)  SysTick Reload Value Register */
 452:Drivers/CMSIS/Include/core_cm0.h ****   __IOM uint32_t VAL;                    /*!< Offset: 0x008 (R/W)  SysTick Current Value Register *
 453:Drivers/CMSIS/Include/core_cm0.h ****   __IM  uint32_t CALIB;                  /*!< Offset: 0x00C (R/ )  SysTick Calibration Register */
 454:Drivers/CMSIS/Include/core_cm0.h **** } SysTick_Type;
 455:Drivers/CMSIS/Include/core_cm0.h **** 
 456:Drivers/CMSIS/Include/core_cm0.h **** /* SysTick Control / Status Register Definitions */
 457:Drivers/CMSIS/Include/core_cm0.h **** #define SysTick_CTRL_COUNTFLAG_Pos         16U                                            /*!< SysT
 458:Drivers/CMSIS/Include/core_cm0.h **** #define SysTick_CTRL_COUNTFLAG_Msk         (1UL << SysTick_CTRL_COUNTFLAG_Pos)            /*!< SysT
 459:Drivers/CMSIS/Include/core_cm0.h **** 
 460:Drivers/CMSIS/Include/core_cm0.h **** #define SysTick_CTRL_CLKSOURCE_Pos          2U                                            /*!< SysT
 461:Drivers/CMSIS/Include/core_cm0.h **** #define SysTick_CTRL_CLKSOURCE_Msk         (1UL << SysTick_CTRL_CLKSOURCE_Pos)            /*!< SysT
 462:Drivers/CMSIS/Include/core_cm0.h **** 
 463:Drivers/CMSIS/Include/core_cm0.h **** #define SysTick_CTRL_TICKINT_Pos            1U                                            /*!< SysT
 464:Drivers/CMSIS/Include/core_cm0.h **** #define SysTick_CTRL_TICKINT_Msk           (1UL << SysTick_CTRL_TICKINT_Pos)              /*!< SysT
 465:Drivers/CMSIS/Include/core_cm0.h **** 
 466:Drivers/CMSIS/Include/core_cm0.h **** #define SysTick_CTRL_ENABLE_Pos             0U                                            /*!< SysT
 467:Drivers/CMSIS/Include/core_cm0.h **** #define SysTick_CTRL_ENABLE_Msk            (1UL /*<< SysTick_CTRL_ENABLE_Pos*/)           /*!< SysT
 468:Drivers/CMSIS/Include/core_cm0.h **** 
 469:Drivers/CMSIS/Include/core_cm0.h **** /* SysTick Reload Register Definitions */
 470:Drivers/CMSIS/Include/core_cm0.h **** #define SysTick_LOAD_RELOAD_Pos             0U                                            /*!< SysT
 471:Drivers/CMSIS/Include/core_cm0.h **** #define SysTick_LOAD_RELOAD_Msk            (0xFFFFFFUL /*<< SysTick_LOAD_RELOAD_Pos*/)    /*!< SysT
 472:Drivers/CMSIS/Include/core_cm0.h **** 
 473:Drivers/CMSIS/Include/core_cm0.h **** /* SysTick Current Register Definitions */
 474:Drivers/CMSIS/Include/core_cm0.h **** #define SysTick_VAL_CURRENT_Pos             0U                                            /*!< SysT
 475:Drivers/CMSIS/Include/core_cm0.h **** #define SysTick_VAL_CURRENT_Msk            (0xFFFFFFUL /*<< SysTick_VAL_CURRENT_Pos*/)    /*!< SysT
 476:Drivers/CMSIS/Include/core_cm0.h **** 
 477:Drivers/CMSIS/Include/core_cm0.h **** /* SysTick Calibration Register Definitions */
 478:Drivers/CMSIS/Include/core_cm0.h **** #define SysTick_CALIB_NOREF_Pos            31U                                            /*!< SysT
 479:Drivers/CMSIS/Include/core_cm0.h **** #define SysTick_CALIB_NOREF_Msk            (1UL << SysTick_CALIB_NOREF_Pos)               /*!< SysT
 480:Drivers/CMSIS/Include/core_cm0.h **** 
 481:Drivers/CMSIS/Include/core_cm0.h **** #define SysTick_CALIB_SKEW_Pos             30U                                            /*!< SysT
 482:Drivers/CMSIS/Include/core_cm0.h **** #define SysTick_CALIB_SKEW_Msk             (1UL << SysTick_CALIB_SKEW_Pos)                /*!< SysT
 483:Drivers/CMSIS/Include/core_cm0.h **** 
 484:Drivers/CMSIS/Include/core_cm0.h **** #define SysTick_CALIB_TENMS_Pos             0U                                            /*!< SysT
 485:Drivers/CMSIS/Include/core_cm0.h **** #define SysTick_CALIB_TENMS_Msk            (0xFFFFFFUL /*<< SysTick_CALIB_TENMS_Pos*/)    /*!< SysT
ARM GAS  C:\Users\vuyani\AppData\Local\Temp\ccwdY4Wa.s 			page 49


 486:Drivers/CMSIS/Include/core_cm0.h **** 
 487:Drivers/CMSIS/Include/core_cm0.h **** /*@} end of group CMSIS_SysTick */
 488:Drivers/CMSIS/Include/core_cm0.h **** 
 489:Drivers/CMSIS/Include/core_cm0.h **** 
 490:Drivers/CMSIS/Include/core_cm0.h **** /**
 491:Drivers/CMSIS/Include/core_cm0.h ****   \ingroup  CMSIS_core_register
 492:Drivers/CMSIS/Include/core_cm0.h ****   \defgroup CMSIS_CoreDebug       Core Debug Registers (CoreDebug)
 493:Drivers/CMSIS/Include/core_cm0.h ****   \brief    Cortex-M0 Core Debug Registers (DCB registers, SHCSR, and DFSR) are only accessible ove
 494:Drivers/CMSIS/Include/core_cm0.h ****             Therefore they are not covered by the Cortex-M0 header file.
 495:Drivers/CMSIS/Include/core_cm0.h ****   @{
 496:Drivers/CMSIS/Include/core_cm0.h ****  */
 497:Drivers/CMSIS/Include/core_cm0.h **** /*@} end of group CMSIS_CoreDebug */
 498:Drivers/CMSIS/Include/core_cm0.h **** 
 499:Drivers/CMSIS/Include/core_cm0.h **** 
 500:Drivers/CMSIS/Include/core_cm0.h **** /**
 501:Drivers/CMSIS/Include/core_cm0.h ****   \ingroup    CMSIS_core_register
 502:Drivers/CMSIS/Include/core_cm0.h ****   \defgroup   CMSIS_core_bitfield     Core register bit field macros
 503:Drivers/CMSIS/Include/core_cm0.h ****   \brief      Macros for use with bit field definitions (xxx_Pos, xxx_Msk).
 504:Drivers/CMSIS/Include/core_cm0.h ****   @{
 505:Drivers/CMSIS/Include/core_cm0.h ****  */
 506:Drivers/CMSIS/Include/core_cm0.h **** 
 507:Drivers/CMSIS/Include/core_cm0.h **** /**
 508:Drivers/CMSIS/Include/core_cm0.h ****   \brief   Mask and shift a bit field value for use in a register bit range.
 509:Drivers/CMSIS/Include/core_cm0.h ****   \param[in] field  Name of the register bit field.
 510:Drivers/CMSIS/Include/core_cm0.h ****   \param[in] value  Value of the bit field. This parameter is interpreted as an uint32_t type.
 511:Drivers/CMSIS/Include/core_cm0.h ****   \return           Masked and shifted value.
 512:Drivers/CMSIS/Include/core_cm0.h **** */
 513:Drivers/CMSIS/Include/core_cm0.h **** #define _VAL2FLD(field, value)    (((uint32_t)(value) << field ## _Pos) & field ## _Msk)
 514:Drivers/CMSIS/Include/core_cm0.h **** 
 515:Drivers/CMSIS/Include/core_cm0.h **** /**
 516:Drivers/CMSIS/Include/core_cm0.h ****   \brief     Mask and shift a register value to extract a bit filed value.
 517:Drivers/CMSIS/Include/core_cm0.h ****   \param[in] field  Name of the register bit field.
 518:Drivers/CMSIS/Include/core_cm0.h ****   \param[in] value  Value of register. This parameter is interpreted as an uint32_t type.
 519:Drivers/CMSIS/Include/core_cm0.h ****   \return           Masked and shifted bit field value.
 520:Drivers/CMSIS/Include/core_cm0.h **** */
 521:Drivers/CMSIS/Include/core_cm0.h **** #define _FLD2VAL(field, value)    (((uint32_t)(value) & field ## _Msk) >> field ## _Pos)
 522:Drivers/CMSIS/Include/core_cm0.h **** 
 523:Drivers/CMSIS/Include/core_cm0.h **** /*@} end of group CMSIS_core_bitfield */
 524:Drivers/CMSIS/Include/core_cm0.h **** 
 525:Drivers/CMSIS/Include/core_cm0.h **** 
 526:Drivers/CMSIS/Include/core_cm0.h **** /**
 527:Drivers/CMSIS/Include/core_cm0.h ****   \ingroup    CMSIS_core_register
 528:Drivers/CMSIS/Include/core_cm0.h ****   \defgroup   CMSIS_core_base     Core Definitions
 529:Drivers/CMSIS/Include/core_cm0.h ****   \brief      Definitions for base addresses, unions, and structures.
 530:Drivers/CMSIS/Include/core_cm0.h ****   @{
 531:Drivers/CMSIS/Include/core_cm0.h ****  */
 532:Drivers/CMSIS/Include/core_cm0.h **** 
 533:Drivers/CMSIS/Include/core_cm0.h **** /* Memory mapping of Core Hardware */
 534:Drivers/CMSIS/Include/core_cm0.h **** #define SCS_BASE            (0xE000E000UL)                            /*!< System Control Space Bas
 535:Drivers/CMSIS/Include/core_cm0.h **** #define SysTick_BASE        (SCS_BASE +  0x0010UL)                    /*!< SysTick Base Address */
 536:Drivers/CMSIS/Include/core_cm0.h **** #define NVIC_BASE           (SCS_BASE +  0x0100UL)                    /*!< NVIC Base Address */
 537:Drivers/CMSIS/Include/core_cm0.h **** #define SCB_BASE            (SCS_BASE +  0x0D00UL)                    /*!< System Control Block Bas
 538:Drivers/CMSIS/Include/core_cm0.h **** 
 539:Drivers/CMSIS/Include/core_cm0.h **** #define SCB                 ((SCB_Type       *)     SCB_BASE      )   /*!< SCB configuration struct
 540:Drivers/CMSIS/Include/core_cm0.h **** #define SysTick             ((SysTick_Type   *)     SysTick_BASE  )   /*!< SysTick configuration st
 541:Drivers/CMSIS/Include/core_cm0.h **** #define NVIC                ((NVIC_Type      *)     NVIC_BASE     )   /*!< NVIC configuration struc
 542:Drivers/CMSIS/Include/core_cm0.h **** 
ARM GAS  C:\Users\vuyani\AppData\Local\Temp\ccwdY4Wa.s 			page 50


 543:Drivers/CMSIS/Include/core_cm0.h **** 
 544:Drivers/CMSIS/Include/core_cm0.h **** /*@} */
 545:Drivers/CMSIS/Include/core_cm0.h **** 
 546:Drivers/CMSIS/Include/core_cm0.h **** 
 547:Drivers/CMSIS/Include/core_cm0.h **** 
 548:Drivers/CMSIS/Include/core_cm0.h **** /*******************************************************************************
 549:Drivers/CMSIS/Include/core_cm0.h ****  *                Hardware Abstraction Layer
 550:Drivers/CMSIS/Include/core_cm0.h ****   Core Function Interface contains:
 551:Drivers/CMSIS/Include/core_cm0.h ****   - Core NVIC Functions
 552:Drivers/CMSIS/Include/core_cm0.h ****   - Core SysTick Functions
 553:Drivers/CMSIS/Include/core_cm0.h ****   - Core Register Access Functions
 554:Drivers/CMSIS/Include/core_cm0.h ****  ******************************************************************************/
 555:Drivers/CMSIS/Include/core_cm0.h **** /**
 556:Drivers/CMSIS/Include/core_cm0.h ****   \defgroup CMSIS_Core_FunctionInterface Functions and Instructions Reference
 557:Drivers/CMSIS/Include/core_cm0.h **** */
 558:Drivers/CMSIS/Include/core_cm0.h **** 
 559:Drivers/CMSIS/Include/core_cm0.h **** 
 560:Drivers/CMSIS/Include/core_cm0.h **** 
 561:Drivers/CMSIS/Include/core_cm0.h **** /* ##########################   NVIC functions  #################################### */
 562:Drivers/CMSIS/Include/core_cm0.h **** /**
 563:Drivers/CMSIS/Include/core_cm0.h ****   \ingroup  CMSIS_Core_FunctionInterface
 564:Drivers/CMSIS/Include/core_cm0.h ****   \defgroup CMSIS_Core_NVICFunctions NVIC Functions
 565:Drivers/CMSIS/Include/core_cm0.h ****   \brief    Functions that manage interrupts and exceptions via the NVIC.
 566:Drivers/CMSIS/Include/core_cm0.h ****   @{
 567:Drivers/CMSIS/Include/core_cm0.h ****  */
 568:Drivers/CMSIS/Include/core_cm0.h **** 
 569:Drivers/CMSIS/Include/core_cm0.h **** #ifdef CMSIS_NVIC_VIRTUAL
 570:Drivers/CMSIS/Include/core_cm0.h ****   #ifndef CMSIS_NVIC_VIRTUAL_HEADER_FILE
 571:Drivers/CMSIS/Include/core_cm0.h ****     #define CMSIS_NVIC_VIRTUAL_HEADER_FILE "cmsis_nvic_virtual.h"
 572:Drivers/CMSIS/Include/core_cm0.h ****   #endif
 573:Drivers/CMSIS/Include/core_cm0.h ****   #include CMSIS_NVIC_VIRTUAL_HEADER_FILE
 574:Drivers/CMSIS/Include/core_cm0.h **** #else
 575:Drivers/CMSIS/Include/core_cm0.h ****   #define NVIC_SetPriorityGrouping    __NVIC_SetPriorityGrouping
 576:Drivers/CMSIS/Include/core_cm0.h ****   #define NVIC_GetPriorityGrouping    __NVIC_GetPriorityGrouping
 577:Drivers/CMSIS/Include/core_cm0.h ****   #define NVIC_EnableIRQ              __NVIC_EnableIRQ
 578:Drivers/CMSIS/Include/core_cm0.h ****   #define NVIC_GetEnableIRQ           __NVIC_GetEnableIRQ
 579:Drivers/CMSIS/Include/core_cm0.h ****   #define NVIC_DisableIRQ             __NVIC_DisableIRQ
 580:Drivers/CMSIS/Include/core_cm0.h ****   #define NVIC_GetPendingIRQ          __NVIC_GetPendingIRQ
 581:Drivers/CMSIS/Include/core_cm0.h ****   #define NVIC_SetPendingIRQ          __NVIC_SetPendingIRQ
 582:Drivers/CMSIS/Include/core_cm0.h ****   #define NVIC_ClearPendingIRQ        __NVIC_ClearPendingIRQ
 583:Drivers/CMSIS/Include/core_cm0.h **** /*#define NVIC_GetActive              __NVIC_GetActive             not available for Cortex-M0 */
 584:Drivers/CMSIS/Include/core_cm0.h ****   #define NVIC_SetPriority            __NVIC_SetPriority
 585:Drivers/CMSIS/Include/core_cm0.h ****   #define NVIC_GetPriority            __NVIC_GetPriority
 586:Drivers/CMSIS/Include/core_cm0.h ****   #define NVIC_SystemReset            __NVIC_SystemReset
 587:Drivers/CMSIS/Include/core_cm0.h **** #endif /* CMSIS_NVIC_VIRTUAL */
 588:Drivers/CMSIS/Include/core_cm0.h **** 
 589:Drivers/CMSIS/Include/core_cm0.h **** #ifdef CMSIS_VECTAB_VIRTUAL
 590:Drivers/CMSIS/Include/core_cm0.h ****   #ifndef CMSIS_VECTAB_VIRTUAL_HEADER_FILE
 591:Drivers/CMSIS/Include/core_cm0.h ****     #define CMSIS_VECTAB_VIRTUAL_HEADER_FILE "cmsis_vectab_virtual.h"
 592:Drivers/CMSIS/Include/core_cm0.h ****   #endif
 593:Drivers/CMSIS/Include/core_cm0.h ****   #include CMSIS_VECTAB_VIRTUAL_HEADER_FILE
 594:Drivers/CMSIS/Include/core_cm0.h **** #else
 595:Drivers/CMSIS/Include/core_cm0.h ****   #define NVIC_SetVector              __NVIC_SetVector
 596:Drivers/CMSIS/Include/core_cm0.h ****   #define NVIC_GetVector              __NVIC_GetVector
 597:Drivers/CMSIS/Include/core_cm0.h **** #endif  /* (CMSIS_VECTAB_VIRTUAL) */
 598:Drivers/CMSIS/Include/core_cm0.h **** 
 599:Drivers/CMSIS/Include/core_cm0.h **** #define NVIC_USER_IRQ_OFFSET          16
ARM GAS  C:\Users\vuyani\AppData\Local\Temp\ccwdY4Wa.s 			page 51


 600:Drivers/CMSIS/Include/core_cm0.h **** 
 601:Drivers/CMSIS/Include/core_cm0.h **** 
 602:Drivers/CMSIS/Include/core_cm0.h **** /* The following EXC_RETURN values are saved the LR on exception entry */
 603:Drivers/CMSIS/Include/core_cm0.h **** #define EXC_RETURN_HANDLER         (0xFFFFFFF1UL)     /* return to Handler mode, uses MSP after ret
 604:Drivers/CMSIS/Include/core_cm0.h **** #define EXC_RETURN_THREAD_MSP      (0xFFFFFFF9UL)     /* return to Thread mode, uses MSP after retu
 605:Drivers/CMSIS/Include/core_cm0.h **** #define EXC_RETURN_THREAD_PSP      (0xFFFFFFFDUL)     /* return to Thread mode, uses PSP after retu
 606:Drivers/CMSIS/Include/core_cm0.h **** 
 607:Drivers/CMSIS/Include/core_cm0.h **** 
 608:Drivers/CMSIS/Include/core_cm0.h **** /* Interrupt Priorities are WORD accessible only under Armv6-M                  */
 609:Drivers/CMSIS/Include/core_cm0.h **** /* The following MACROS handle generation of the register offset and byte masks */
 610:Drivers/CMSIS/Include/core_cm0.h **** #define _BIT_SHIFT(IRQn)         (  ((((uint32_t)(int32_t)(IRQn))         )      &  0x03UL) * 8UL)
 611:Drivers/CMSIS/Include/core_cm0.h **** #define _SHP_IDX(IRQn)           ( (((((uint32_t)(int32_t)(IRQn)) & 0x0FUL)-8UL) >>    2UL)      )
 612:Drivers/CMSIS/Include/core_cm0.h **** #define _IP_IDX(IRQn)            (   (((uint32_t)(int32_t)(IRQn))                >>    2UL)      )
 613:Drivers/CMSIS/Include/core_cm0.h **** 
 614:Drivers/CMSIS/Include/core_cm0.h **** #define __NVIC_SetPriorityGrouping(X) (void)(X)
 615:Drivers/CMSIS/Include/core_cm0.h **** #define __NVIC_GetPriorityGrouping()  (0U)
 616:Drivers/CMSIS/Include/core_cm0.h **** 
 617:Drivers/CMSIS/Include/core_cm0.h **** /**
 618:Drivers/CMSIS/Include/core_cm0.h ****   \brief   Enable Interrupt
 619:Drivers/CMSIS/Include/core_cm0.h ****   \details Enables a device specific interrupt in the NVIC interrupt controller.
 620:Drivers/CMSIS/Include/core_cm0.h ****   \param [in]      IRQn  Device specific interrupt number.
 621:Drivers/CMSIS/Include/core_cm0.h ****   \note    IRQn must not be negative.
 622:Drivers/CMSIS/Include/core_cm0.h ****  */
 623:Drivers/CMSIS/Include/core_cm0.h **** __STATIC_INLINE void __NVIC_EnableIRQ(IRQn_Type IRQn)
 632              		.loc 5 623 22 view .LVU214
 633              	.LBB71:
 624:Drivers/CMSIS/Include/core_cm0.h **** {
 625:Drivers/CMSIS/Include/core_cm0.h ****   if ((int32_t)(IRQn) >= 0)
 634              		.loc 5 625 3 view .LVU215
 626:Drivers/CMSIS/Include/core_cm0.h ****   {
 627:Drivers/CMSIS/Include/core_cm0.h ****     NVIC->ISER[0U] = (uint32_t)(1UL << (((uint32_t)IRQn) & 0x1FUL));
 635              		.loc 5 627 5 view .LVU216
 636              		.loc 5 627 20 is_stmt 0 view .LVU217
 637 0024 074B     		ldr	r3, .L12+16
 638 0026 8022     		movs	r2, #128
 639 0028 9203     		lsls	r2, r2, #14
 640 002a 1A60     		str	r2, [r3]
 641              	.LVL28:
 642              		.loc 5 627 20 view .LVU218
 643              	.LBE71:
 644              	.LBE70:
 179:Core/Src/main.c **** 
 645              		.loc 1 179 1 view .LVU219
 646              		@ sp needed
 647 002c 10BD     		pop	{r4, pc}
 648              	.L11:
 173:Core/Src/main.c ****   }
 649              		.loc 1 173 5 is_stmt 1 view .LVU220
 650 002e FFF7FEFF 		bl	Error_Handler
 651              	.LVL29:
 652              	.L13:
 653 0032 C046     		.align	2
 654              	.L12:
 655 0034 00000000 		.word	htim16
 656 0038 00440140 		.word	1073824768
 657 003c 3F1F0000 		.word	7999
 658 0040 E7030000 		.word	999
ARM GAS  C:\Users\vuyani\AppData\Local\Temp\ccwdY4Wa.s 			page 52


 659 0044 00E100E0 		.word	-536813312
 660              		.cfi_endproc
 661              	.LFE345:
 663              		.section	.text.SystemClock_Config,"ax",%progbits
 664              		.align	1
 665              		.global	SystemClock_Config
 666              		.syntax unified
 667              		.code	16
 668              		.thumb_func
 670              	SystemClock_Config:
 671              	.LFB344:
 118:Core/Src/main.c ****   LL_FLASH_SetLatency(LL_FLASH_LATENCY_0);
 672              		.loc 1 118 1 view -0
 673              		.cfi_startproc
 674              		@ args = 0, pretend = 0, frame = 0
 675              		@ frame_needed = 0, uses_anonymous_args = 0
 676 0000 10B5     		push	{r4, lr}
 677              	.LCFI5:
 678              		.cfi_def_cfa_offset 8
 679              		.cfi_offset 4, -8
 680              		.cfi_offset 14, -4
 119:Core/Src/main.c ****   while(LL_FLASH_GetLatency() != LL_FLASH_LATENCY_0)
 681              		.loc 1 119 3 view .LVU222
 682              	.LVL30:
 683              	.LBB72:
 684              	.LBI72:
 685              		.file 6 "Drivers/STM32F0xx_HAL_Driver/Inc/stm32f0xx_ll_system.h"
   1:Drivers/STM32F0xx_HAL_Driver/Inc/stm32f0xx_ll_system.h **** /**
   2:Drivers/STM32F0xx_HAL_Driver/Inc/stm32f0xx_ll_system.h ****   ******************************************************************************
   3:Drivers/STM32F0xx_HAL_Driver/Inc/stm32f0xx_ll_system.h ****   * @file    stm32f0xx_ll_system.h
   4:Drivers/STM32F0xx_HAL_Driver/Inc/stm32f0xx_ll_system.h ****   * @author  MCD Application Team
   5:Drivers/STM32F0xx_HAL_Driver/Inc/stm32f0xx_ll_system.h ****   * @brief   Header file of SYSTEM LL module.
   6:Drivers/STM32F0xx_HAL_Driver/Inc/stm32f0xx_ll_system.h ****   @verbatim
   7:Drivers/STM32F0xx_HAL_Driver/Inc/stm32f0xx_ll_system.h ****   ==============================================================================
   8:Drivers/STM32F0xx_HAL_Driver/Inc/stm32f0xx_ll_system.h ****                      ##### How to use this driver #####
   9:Drivers/STM32F0xx_HAL_Driver/Inc/stm32f0xx_ll_system.h ****   ==============================================================================
  10:Drivers/STM32F0xx_HAL_Driver/Inc/stm32f0xx_ll_system.h ****     [..]
  11:Drivers/STM32F0xx_HAL_Driver/Inc/stm32f0xx_ll_system.h ****     The LL SYSTEM driver contains a set of generic APIs that can be
  12:Drivers/STM32F0xx_HAL_Driver/Inc/stm32f0xx_ll_system.h ****     used by user:
  13:Drivers/STM32F0xx_HAL_Driver/Inc/stm32f0xx_ll_system.h ****       (+) Some of the FLASH features need to be handled in the SYSTEM file.
  14:Drivers/STM32F0xx_HAL_Driver/Inc/stm32f0xx_ll_system.h ****       (+) Access to DBGCMU registers
  15:Drivers/STM32F0xx_HAL_Driver/Inc/stm32f0xx_ll_system.h ****       (+) Access to SYSCFG registers
  16:Drivers/STM32F0xx_HAL_Driver/Inc/stm32f0xx_ll_system.h **** 
  17:Drivers/STM32F0xx_HAL_Driver/Inc/stm32f0xx_ll_system.h ****   @endverbatim
  18:Drivers/STM32F0xx_HAL_Driver/Inc/stm32f0xx_ll_system.h ****   ******************************************************************************
  19:Drivers/STM32F0xx_HAL_Driver/Inc/stm32f0xx_ll_system.h ****   * @attention
  20:Drivers/STM32F0xx_HAL_Driver/Inc/stm32f0xx_ll_system.h ****   *
  21:Drivers/STM32F0xx_HAL_Driver/Inc/stm32f0xx_ll_system.h ****   * Copyright (c) 2016 STMicroelectronics.
  22:Drivers/STM32F0xx_HAL_Driver/Inc/stm32f0xx_ll_system.h ****   * All rights reserved.
  23:Drivers/STM32F0xx_HAL_Driver/Inc/stm32f0xx_ll_system.h ****   *
  24:Drivers/STM32F0xx_HAL_Driver/Inc/stm32f0xx_ll_system.h ****   * This software is licensed under terms that can be found in the LICENSE file
  25:Drivers/STM32F0xx_HAL_Driver/Inc/stm32f0xx_ll_system.h ****   * in the root directory of this software component.
  26:Drivers/STM32F0xx_HAL_Driver/Inc/stm32f0xx_ll_system.h ****   * If no LICENSE file comes with this software, it is provided AS-IS.
  27:Drivers/STM32F0xx_HAL_Driver/Inc/stm32f0xx_ll_system.h ****   *
  28:Drivers/STM32F0xx_HAL_Driver/Inc/stm32f0xx_ll_system.h ****   ******************************************************************************
  29:Drivers/STM32F0xx_HAL_Driver/Inc/stm32f0xx_ll_system.h ****   */
  30:Drivers/STM32F0xx_HAL_Driver/Inc/stm32f0xx_ll_system.h **** 
ARM GAS  C:\Users\vuyani\AppData\Local\Temp\ccwdY4Wa.s 			page 53


  31:Drivers/STM32F0xx_HAL_Driver/Inc/stm32f0xx_ll_system.h **** /* Define to prevent recursive inclusion -------------------------------------*/
  32:Drivers/STM32F0xx_HAL_Driver/Inc/stm32f0xx_ll_system.h **** #ifndef __STM32F0xx_LL_SYSTEM_H
  33:Drivers/STM32F0xx_HAL_Driver/Inc/stm32f0xx_ll_system.h **** #define __STM32F0xx_LL_SYSTEM_H
  34:Drivers/STM32F0xx_HAL_Driver/Inc/stm32f0xx_ll_system.h **** 
  35:Drivers/STM32F0xx_HAL_Driver/Inc/stm32f0xx_ll_system.h **** #ifdef __cplusplus
  36:Drivers/STM32F0xx_HAL_Driver/Inc/stm32f0xx_ll_system.h **** extern "C" {
  37:Drivers/STM32F0xx_HAL_Driver/Inc/stm32f0xx_ll_system.h **** #endif
  38:Drivers/STM32F0xx_HAL_Driver/Inc/stm32f0xx_ll_system.h **** 
  39:Drivers/STM32F0xx_HAL_Driver/Inc/stm32f0xx_ll_system.h **** /* Includes ------------------------------------------------------------------*/
  40:Drivers/STM32F0xx_HAL_Driver/Inc/stm32f0xx_ll_system.h **** #include "stm32f0xx.h"
  41:Drivers/STM32F0xx_HAL_Driver/Inc/stm32f0xx_ll_system.h **** 
  42:Drivers/STM32F0xx_HAL_Driver/Inc/stm32f0xx_ll_system.h **** /** @addtogroup STM32F0xx_LL_Driver
  43:Drivers/STM32F0xx_HAL_Driver/Inc/stm32f0xx_ll_system.h ****   * @{
  44:Drivers/STM32F0xx_HAL_Driver/Inc/stm32f0xx_ll_system.h ****   */
  45:Drivers/STM32F0xx_HAL_Driver/Inc/stm32f0xx_ll_system.h **** 
  46:Drivers/STM32F0xx_HAL_Driver/Inc/stm32f0xx_ll_system.h **** #if defined (FLASH) || defined (SYSCFG) || defined (DBGMCU)
  47:Drivers/STM32F0xx_HAL_Driver/Inc/stm32f0xx_ll_system.h **** 
  48:Drivers/STM32F0xx_HAL_Driver/Inc/stm32f0xx_ll_system.h **** /** @defgroup SYSTEM_LL SYSTEM
  49:Drivers/STM32F0xx_HAL_Driver/Inc/stm32f0xx_ll_system.h ****   * @{
  50:Drivers/STM32F0xx_HAL_Driver/Inc/stm32f0xx_ll_system.h ****   */
  51:Drivers/STM32F0xx_HAL_Driver/Inc/stm32f0xx_ll_system.h **** 
  52:Drivers/STM32F0xx_HAL_Driver/Inc/stm32f0xx_ll_system.h **** /* Private types -------------------------------------------------------------*/
  53:Drivers/STM32F0xx_HAL_Driver/Inc/stm32f0xx_ll_system.h **** /* Private variables ---------------------------------------------------------*/
  54:Drivers/STM32F0xx_HAL_Driver/Inc/stm32f0xx_ll_system.h **** 
  55:Drivers/STM32F0xx_HAL_Driver/Inc/stm32f0xx_ll_system.h **** /* Private constants ---------------------------------------------------------*/
  56:Drivers/STM32F0xx_HAL_Driver/Inc/stm32f0xx_ll_system.h **** /** @defgroup SYSTEM_LL_Private_Constants SYSTEM Private Constants
  57:Drivers/STM32F0xx_HAL_Driver/Inc/stm32f0xx_ll_system.h ****   * @{
  58:Drivers/STM32F0xx_HAL_Driver/Inc/stm32f0xx_ll_system.h ****   */
  59:Drivers/STM32F0xx_HAL_Driver/Inc/stm32f0xx_ll_system.h **** 
  60:Drivers/STM32F0xx_HAL_Driver/Inc/stm32f0xx_ll_system.h **** /**
  61:Drivers/STM32F0xx_HAL_Driver/Inc/stm32f0xx_ll_system.h ****   * @}
  62:Drivers/STM32F0xx_HAL_Driver/Inc/stm32f0xx_ll_system.h ****   */
  63:Drivers/STM32F0xx_HAL_Driver/Inc/stm32f0xx_ll_system.h **** 
  64:Drivers/STM32F0xx_HAL_Driver/Inc/stm32f0xx_ll_system.h **** /* Private macros ------------------------------------------------------------*/
  65:Drivers/STM32F0xx_HAL_Driver/Inc/stm32f0xx_ll_system.h **** 
  66:Drivers/STM32F0xx_HAL_Driver/Inc/stm32f0xx_ll_system.h **** /* Exported types ------------------------------------------------------------*/
  67:Drivers/STM32F0xx_HAL_Driver/Inc/stm32f0xx_ll_system.h **** /* Exported constants --------------------------------------------------------*/
  68:Drivers/STM32F0xx_HAL_Driver/Inc/stm32f0xx_ll_system.h **** /** @defgroup SYSTEM_LL_Exported_Constants SYSTEM Exported Constants
  69:Drivers/STM32F0xx_HAL_Driver/Inc/stm32f0xx_ll_system.h ****   * @{
  70:Drivers/STM32F0xx_HAL_Driver/Inc/stm32f0xx_ll_system.h ****   */
  71:Drivers/STM32F0xx_HAL_Driver/Inc/stm32f0xx_ll_system.h **** 
  72:Drivers/STM32F0xx_HAL_Driver/Inc/stm32f0xx_ll_system.h **** /** @defgroup SYSTEM_LL_EC_REMAP SYSCFG Remap
  73:Drivers/STM32F0xx_HAL_Driver/Inc/stm32f0xx_ll_system.h **** * @{
  74:Drivers/STM32F0xx_HAL_Driver/Inc/stm32f0xx_ll_system.h **** */
  75:Drivers/STM32F0xx_HAL_Driver/Inc/stm32f0xx_ll_system.h **** #define LL_SYSCFG_REMAP_FLASH              (uint32_t)0x00000000U                               /*!<
  76:Drivers/STM32F0xx_HAL_Driver/Inc/stm32f0xx_ll_system.h **** #define LL_SYSCFG_REMAP_SYSTEMFLASH        SYSCFG_CFGR1_MEM_MODE_0                             /*!<
  77:Drivers/STM32F0xx_HAL_Driver/Inc/stm32f0xx_ll_system.h **** #define LL_SYSCFG_REMAP_SRAM               (SYSCFG_CFGR1_MEM_MODE_1 | SYSCFG_CFGR1_MEM_MODE_0) /*!<
  78:Drivers/STM32F0xx_HAL_Driver/Inc/stm32f0xx_ll_system.h **** /**
  79:Drivers/STM32F0xx_HAL_Driver/Inc/stm32f0xx_ll_system.h ****   * @}
  80:Drivers/STM32F0xx_HAL_Driver/Inc/stm32f0xx_ll_system.h ****   */
  81:Drivers/STM32F0xx_HAL_Driver/Inc/stm32f0xx_ll_system.h **** 
  82:Drivers/STM32F0xx_HAL_Driver/Inc/stm32f0xx_ll_system.h **** #if defined(SYSCFG_CFGR1_IR_MOD)
  83:Drivers/STM32F0xx_HAL_Driver/Inc/stm32f0xx_ll_system.h **** /** @defgroup SYSTEM_LL_EC_IR_MOD SYSCFG IR Modulation
  84:Drivers/STM32F0xx_HAL_Driver/Inc/stm32f0xx_ll_system.h ****   * @{
  85:Drivers/STM32F0xx_HAL_Driver/Inc/stm32f0xx_ll_system.h ****   */
  86:Drivers/STM32F0xx_HAL_Driver/Inc/stm32f0xx_ll_system.h **** #define LL_SYSCFG_IR_MOD_TIM16       (SYSCFG_CFGR1_IR_MOD_0 & SYSCFG_CFGR1_IR_MOD_1)    /*!< Timer1
  87:Drivers/STM32F0xx_HAL_Driver/Inc/stm32f0xx_ll_system.h **** #define LL_SYSCFG_IR_MOD_USART1      (SYSCFG_CFGR1_IR_MOD_0)                            /*!< USART1
ARM GAS  C:\Users\vuyani\AppData\Local\Temp\ccwdY4Wa.s 			page 54


  88:Drivers/STM32F0xx_HAL_Driver/Inc/stm32f0xx_ll_system.h **** #define LL_SYSCFG_IR_MOD_USART4      (SYSCFG_CFGR1_IR_MOD_1)                            /*!< USART4
  89:Drivers/STM32F0xx_HAL_Driver/Inc/stm32f0xx_ll_system.h **** /**
  90:Drivers/STM32F0xx_HAL_Driver/Inc/stm32f0xx_ll_system.h ****   * @}
  91:Drivers/STM32F0xx_HAL_Driver/Inc/stm32f0xx_ll_system.h ****   */
  92:Drivers/STM32F0xx_HAL_Driver/Inc/stm32f0xx_ll_system.h **** 
  93:Drivers/STM32F0xx_HAL_Driver/Inc/stm32f0xx_ll_system.h **** #endif /* SYSCFG_CFGR1_IR_MOD */
  94:Drivers/STM32F0xx_HAL_Driver/Inc/stm32f0xx_ll_system.h **** 
  95:Drivers/STM32F0xx_HAL_Driver/Inc/stm32f0xx_ll_system.h **** #if defined(SYSCFG_CFGR1_USART1TX_DMA_RMP) || defined(SYSCFG_CFGR1_USART1RX_DMA_RMP) || defined(SYS
  96:Drivers/STM32F0xx_HAL_Driver/Inc/stm32f0xx_ll_system.h **** /** @defgroup SYSTEM_LL_EC_USART1TX_RMP SYSCFG USART DMA Remap
  97:Drivers/STM32F0xx_HAL_Driver/Inc/stm32f0xx_ll_system.h ****   * @{
  98:Drivers/STM32F0xx_HAL_Driver/Inc/stm32f0xx_ll_system.h ****   */
  99:Drivers/STM32F0xx_HAL_Driver/Inc/stm32f0xx_ll_system.h **** #if defined (SYSCFG_CFGR1_USART1TX_DMA_RMP)
 100:Drivers/STM32F0xx_HAL_Driver/Inc/stm32f0xx_ll_system.h **** #define LL_SYSCFG_USART1TX_RMP_DMA1CH2     ((SYSCFG_CFGR1_USART1TX_DMA_RMP >> 8U) | (uint32_t)0x000
 101:Drivers/STM32F0xx_HAL_Driver/Inc/stm32f0xx_ll_system.h **** #define LL_SYSCFG_USART1TX_RMP_DMA1CH4     ((SYSCFG_CFGR1_USART1TX_DMA_RMP >> 8U) | SYSCFG_CFGR1_US
 102:Drivers/STM32F0xx_HAL_Driver/Inc/stm32f0xx_ll_system.h **** #endif /*SYSCFG_CFGR1_USART1TX_DMA_RMP*/
 103:Drivers/STM32F0xx_HAL_Driver/Inc/stm32f0xx_ll_system.h **** #if defined (SYSCFG_CFGR1_USART1RX_DMA_RMP)
 104:Drivers/STM32F0xx_HAL_Driver/Inc/stm32f0xx_ll_system.h **** #define LL_SYSCFG_USART1RX_RMP_DMA1CH3     ((SYSCFG_CFGR1_USART1RX_DMA_RMP >> 8U) | (uint32_t)0x000
 105:Drivers/STM32F0xx_HAL_Driver/Inc/stm32f0xx_ll_system.h **** #define LL_SYSCFG_USART1RX_RMP_DMA1CH5     ((SYSCFG_CFGR1_USART1RX_DMA_RMP >> 8U) | SYSCFG_CFGR1_US
 106:Drivers/STM32F0xx_HAL_Driver/Inc/stm32f0xx_ll_system.h **** #endif /*SYSCFG_CFGR1_USART1RX_DMA_RMP*/
 107:Drivers/STM32F0xx_HAL_Driver/Inc/stm32f0xx_ll_system.h **** #if defined (SYSCFG_CFGR1_USART2_DMA_RMP)
 108:Drivers/STM32F0xx_HAL_Driver/Inc/stm32f0xx_ll_system.h **** #define LL_SYSCFG_USART2_RMP_DMA1CH54      ((SYSCFG_CFGR1_USART2_DMA_RMP >> 8U) | (uint32_t)0x00000
 109:Drivers/STM32F0xx_HAL_Driver/Inc/stm32f0xx_ll_system.h **** #define LL_SYSCFG_USART2_RMP_DMA1CH67      ((SYSCFG_CFGR1_USART2_DMA_RMP >> 8U) | SYSCFG_CFGR1_USAR
 110:Drivers/STM32F0xx_HAL_Driver/Inc/stm32f0xx_ll_system.h **** #endif /*SYSCFG_CFGR1_USART2_DMA_RMP*/
 111:Drivers/STM32F0xx_HAL_Driver/Inc/stm32f0xx_ll_system.h **** #if defined (SYSCFG_CFGR1_USART3_DMA_RMP)
 112:Drivers/STM32F0xx_HAL_Driver/Inc/stm32f0xx_ll_system.h **** #define LL_SYSCFG_USART3_RMP_DMA1CH67      ((SYSCFG_CFGR1_USART3_DMA_RMP >> 8U) | (uint32_t)0x00000
 113:Drivers/STM32F0xx_HAL_Driver/Inc/stm32f0xx_ll_system.h **** #define LL_SYSCFG_USART3_RMP_DMA1CH32      ((SYSCFG_CFGR1_USART3_DMA_RMP >> 8U) | SYSCFG_CFGR1_USAR
 114:Drivers/STM32F0xx_HAL_Driver/Inc/stm32f0xx_ll_system.h **** #endif /* SYSCFG_CFGR1_USART3_DMA_RMP */
 115:Drivers/STM32F0xx_HAL_Driver/Inc/stm32f0xx_ll_system.h **** /**
 116:Drivers/STM32F0xx_HAL_Driver/Inc/stm32f0xx_ll_system.h ****   * @}
 117:Drivers/STM32F0xx_HAL_Driver/Inc/stm32f0xx_ll_system.h ****   */
 118:Drivers/STM32F0xx_HAL_Driver/Inc/stm32f0xx_ll_system.h **** #endif /* SYSCFG_CFGR1_USART1TX_DMA_RMP || SYSCFG_CFGR1_USART1RX_DMA_RMP || SYSCFG_CFGR1_USART2_DMA
 119:Drivers/STM32F0xx_HAL_Driver/Inc/stm32f0xx_ll_system.h **** 
 120:Drivers/STM32F0xx_HAL_Driver/Inc/stm32f0xx_ll_system.h **** #if defined (SYSCFG_CFGR1_SPI2_DMA_RMP)
 121:Drivers/STM32F0xx_HAL_Driver/Inc/stm32f0xx_ll_system.h **** /** @defgroup SYSTEM_LL_EC_SPI2_RMP_DMA1 SYSCFG SPI2 DMA Remap
 122:Drivers/STM32F0xx_HAL_Driver/Inc/stm32f0xx_ll_system.h ****   * @{
 123:Drivers/STM32F0xx_HAL_Driver/Inc/stm32f0xx_ll_system.h ****   */
 124:Drivers/STM32F0xx_HAL_Driver/Inc/stm32f0xx_ll_system.h **** #define LL_SYSCFG_SPI2_RMP_DMA1_CH45       (uint32_t)0x00000000U      /*!< SPI2_RX and SPI2_TX DMA 
 125:Drivers/STM32F0xx_HAL_Driver/Inc/stm32f0xx_ll_system.h **** #define LL_SYSCFG_SPI2_RMP_DMA1_CH67       SYSCFG_CFGR1_SPI2_DMA_RMP  /*!< SPI2_RX and SPI2_TX DMA 
 126:Drivers/STM32F0xx_HAL_Driver/Inc/stm32f0xx_ll_system.h **** /**
 127:Drivers/STM32F0xx_HAL_Driver/Inc/stm32f0xx_ll_system.h ****   * @}
 128:Drivers/STM32F0xx_HAL_Driver/Inc/stm32f0xx_ll_system.h ****   */
 129:Drivers/STM32F0xx_HAL_Driver/Inc/stm32f0xx_ll_system.h **** 
 130:Drivers/STM32F0xx_HAL_Driver/Inc/stm32f0xx_ll_system.h **** #endif /*SYSCFG_CFGR1_SPI2_DMA_RMP*/
 131:Drivers/STM32F0xx_HAL_Driver/Inc/stm32f0xx_ll_system.h **** 
 132:Drivers/STM32F0xx_HAL_Driver/Inc/stm32f0xx_ll_system.h **** #if defined (SYSCFG_CFGR1_I2C1_DMA_RMP)
 133:Drivers/STM32F0xx_HAL_Driver/Inc/stm32f0xx_ll_system.h **** /** @defgroup SYSTEM_LL_EC_I2C1_RMP_DMA1 SYSCFG I2C1 DMA Remap
 134:Drivers/STM32F0xx_HAL_Driver/Inc/stm32f0xx_ll_system.h ****   * @{
 135:Drivers/STM32F0xx_HAL_Driver/Inc/stm32f0xx_ll_system.h ****   */
 136:Drivers/STM32F0xx_HAL_Driver/Inc/stm32f0xx_ll_system.h **** #define LL_SYSCFG_I2C1_RMP_DMA1_CH32       (uint32_t)0x00000000U      /*!< I2C1_RX and I2C1_TX DMA 
 137:Drivers/STM32F0xx_HAL_Driver/Inc/stm32f0xx_ll_system.h **** #define LL_SYSCFG_I2C1_RMP_DMA1_CH76       SYSCFG_CFGR1_I2C1_DMA_RMP  /*!< I2C1_RX and I2C1_TX DMA 
 138:Drivers/STM32F0xx_HAL_Driver/Inc/stm32f0xx_ll_system.h **** /**
 139:Drivers/STM32F0xx_HAL_Driver/Inc/stm32f0xx_ll_system.h ****   * @}
 140:Drivers/STM32F0xx_HAL_Driver/Inc/stm32f0xx_ll_system.h ****   */
 141:Drivers/STM32F0xx_HAL_Driver/Inc/stm32f0xx_ll_system.h **** 
 142:Drivers/STM32F0xx_HAL_Driver/Inc/stm32f0xx_ll_system.h **** #endif /*SYSCFG_CFGR1_I2C1_DMA_RMP*/
 143:Drivers/STM32F0xx_HAL_Driver/Inc/stm32f0xx_ll_system.h **** 
 144:Drivers/STM32F0xx_HAL_Driver/Inc/stm32f0xx_ll_system.h **** #if defined(SYSCFG_CFGR1_ADC_DMA_RMP)
ARM GAS  C:\Users\vuyani\AppData\Local\Temp\ccwdY4Wa.s 			page 55


 145:Drivers/STM32F0xx_HAL_Driver/Inc/stm32f0xx_ll_system.h **** /** @defgroup SYSTEM_LL_EC_ADC1_RMP_DMA1 SYSCFG ADC1 DMA Remap
 146:Drivers/STM32F0xx_HAL_Driver/Inc/stm32f0xx_ll_system.h ****   * @{
 147:Drivers/STM32F0xx_HAL_Driver/Inc/stm32f0xx_ll_system.h ****   */
 148:Drivers/STM32F0xx_HAL_Driver/Inc/stm32f0xx_ll_system.h **** #define LL_SYSCFG_ADC1_RMP_DMA1_CH1        (uint32_t)0x00000000U     /*!< ADC DMA request mapped on
 149:Drivers/STM32F0xx_HAL_Driver/Inc/stm32f0xx_ll_system.h **** #define LL_SYSCFG_ADC1_RMP_DMA1_CH2        SYSCFG_CFGR1_ADC_DMA_RMP  /*!< ADC DMA request mapped on
 150:Drivers/STM32F0xx_HAL_Driver/Inc/stm32f0xx_ll_system.h **** /**
 151:Drivers/STM32F0xx_HAL_Driver/Inc/stm32f0xx_ll_system.h ****   * @}
 152:Drivers/STM32F0xx_HAL_Driver/Inc/stm32f0xx_ll_system.h ****   */
 153:Drivers/STM32F0xx_HAL_Driver/Inc/stm32f0xx_ll_system.h **** 
 154:Drivers/STM32F0xx_HAL_Driver/Inc/stm32f0xx_ll_system.h **** #endif /* SYSCFG_CFGR1_ADC_DMA_RMP */
 155:Drivers/STM32F0xx_HAL_Driver/Inc/stm32f0xx_ll_system.h **** 
 156:Drivers/STM32F0xx_HAL_Driver/Inc/stm32f0xx_ll_system.h **** #if defined(SYSCFG_CFGR1_TIM16_DMA_RMP) || defined(SYSCFG_CFGR1_TIM17_DMA_RMP) || defined(SYSCFG_CF
 157:Drivers/STM32F0xx_HAL_Driver/Inc/stm32f0xx_ll_system.h **** /** @defgroup SYSTEM_LL_EC_TIM16_RMP_DMA1 SYSCFG TIM DMA Remap
 158:Drivers/STM32F0xx_HAL_Driver/Inc/stm32f0xx_ll_system.h ****   * @{
 159:Drivers/STM32F0xx_HAL_Driver/Inc/stm32f0xx_ll_system.h ****   */
 160:Drivers/STM32F0xx_HAL_Driver/Inc/stm32f0xx_ll_system.h **** #if defined(SYSCFG_CFGR1_TIM16_DMA_RMP)
 161:Drivers/STM32F0xx_HAL_Driver/Inc/stm32f0xx_ll_system.h **** #if defined (SYSCFG_CFGR1_TIM16_DMA_RMP2)
 162:Drivers/STM32F0xx_HAL_Driver/Inc/stm32f0xx_ll_system.h **** #define LL_SYSCFG_TIM16_RMP_DMA1_CH3       (((SYSCFG_CFGR1_TIM16_DMA_RMP | SYSCFG_CFGR1_TIM16_DMA_R
 163:Drivers/STM32F0xx_HAL_Driver/Inc/stm32f0xx_ll_system.h **** #define LL_SYSCFG_TIM16_RMP_DMA1_CH4       (((SYSCFG_CFGR1_TIM16_DMA_RMP | SYSCFG_CFGR1_TIM16_DMA_R
 164:Drivers/STM32F0xx_HAL_Driver/Inc/stm32f0xx_ll_system.h **** #define LL_SYSCFG_TIM16_RMP_DMA1_CH6       ((SYSCFG_CFGR1_TIM16_DMA_RMP2 >> 8U) | SYSCFG_CFGR1_TIM1
 165:Drivers/STM32F0xx_HAL_Driver/Inc/stm32f0xx_ll_system.h **** #else
 166:Drivers/STM32F0xx_HAL_Driver/Inc/stm32f0xx_ll_system.h **** #define LL_SYSCFG_TIM16_RMP_DMA1_CH3       ((SYSCFG_CFGR1_TIM16_DMA_RMP >> 8U) | (uint32_t)0x000000
 167:Drivers/STM32F0xx_HAL_Driver/Inc/stm32f0xx_ll_system.h **** #define LL_SYSCFG_TIM16_RMP_DMA1_CH4       ((SYSCFG_CFGR1_TIM16_DMA_RMP >> 8U) | SYSCFG_CFGR1_TIM16
 168:Drivers/STM32F0xx_HAL_Driver/Inc/stm32f0xx_ll_system.h **** #endif /* SYSCFG_CFGR1_TIM16_DMA_RMP2 */
 169:Drivers/STM32F0xx_HAL_Driver/Inc/stm32f0xx_ll_system.h **** #endif /* SYSCFG_CFGR1_TIM16_DMA_RMP */
 170:Drivers/STM32F0xx_HAL_Driver/Inc/stm32f0xx_ll_system.h **** #if defined(SYSCFG_CFGR1_TIM17_DMA_RMP)
 171:Drivers/STM32F0xx_HAL_Driver/Inc/stm32f0xx_ll_system.h **** #if defined (SYSCFG_CFGR1_TIM17_DMA_RMP2)
 172:Drivers/STM32F0xx_HAL_Driver/Inc/stm32f0xx_ll_system.h **** #define LL_SYSCFG_TIM17_RMP_DMA1_CH1       (((SYSCFG_CFGR1_TIM17_DMA_RMP | SYSCFG_CFGR1_TIM17_DMA_R
 173:Drivers/STM32F0xx_HAL_Driver/Inc/stm32f0xx_ll_system.h **** #define LL_SYSCFG_TIM17_RMP_DMA1_CH2       (((SYSCFG_CFGR1_TIM17_DMA_RMP | SYSCFG_CFGR1_TIM17_DMA_R
 174:Drivers/STM32F0xx_HAL_Driver/Inc/stm32f0xx_ll_system.h **** #define LL_SYSCFG_TIM17_RMP_DMA1_CH7       ((SYSCFG_CFGR1_TIM17_DMA_RMP2 >> 8U) | SYSCFG_CFGR1_TIM1
 175:Drivers/STM32F0xx_HAL_Driver/Inc/stm32f0xx_ll_system.h **** #else
 176:Drivers/STM32F0xx_HAL_Driver/Inc/stm32f0xx_ll_system.h **** #define LL_SYSCFG_TIM17_RMP_DMA1_CH1       ((SYSCFG_CFGR1_TIM17_DMA_RMP >> 8U) | (uint32_t)0x000000
 177:Drivers/STM32F0xx_HAL_Driver/Inc/stm32f0xx_ll_system.h **** #define LL_SYSCFG_TIM17_RMP_DMA1_CH2       ((SYSCFG_CFGR1_TIM17_DMA_RMP >> 8U) | SYSCFG_CFGR1_TIM17
 178:Drivers/STM32F0xx_HAL_Driver/Inc/stm32f0xx_ll_system.h **** #endif /* SYSCFG_CFGR1_TIM17_DMA_RMP2 */
 179:Drivers/STM32F0xx_HAL_Driver/Inc/stm32f0xx_ll_system.h **** #endif /* SYSCFG_CFGR1_TIM17_DMA_RMP */
 180:Drivers/STM32F0xx_HAL_Driver/Inc/stm32f0xx_ll_system.h **** #if defined (SYSCFG_CFGR1_TIM1_DMA_RMP)
 181:Drivers/STM32F0xx_HAL_Driver/Inc/stm32f0xx_ll_system.h **** #define LL_SYSCFG_TIM1_RMP_DMA1_CH234      ((SYSCFG_CFGR1_TIM1_DMA_RMP >> 8U) | (uint32_t)0x0000000
 182:Drivers/STM32F0xx_HAL_Driver/Inc/stm32f0xx_ll_system.h **** #define LL_SYSCFG_TIM1_RMP_DMA1_CH6        ((SYSCFG_CFGR1_TIM1_DMA_RMP >> 8U) | SYSCFG_CFGR1_TIM1_D
 183:Drivers/STM32F0xx_HAL_Driver/Inc/stm32f0xx_ll_system.h **** #endif /*SYSCFG_CFGR1_TIM1_DMA_RMP*/
 184:Drivers/STM32F0xx_HAL_Driver/Inc/stm32f0xx_ll_system.h **** #if defined (SYSCFG_CFGR1_TIM2_DMA_RMP)
 185:Drivers/STM32F0xx_HAL_Driver/Inc/stm32f0xx_ll_system.h **** #define LL_SYSCFG_TIM2_RMP_DMA1_CH34       ((SYSCFG_CFGR1_TIM2_DMA_RMP >> 8U) | (uint32_t)0x0000000
 186:Drivers/STM32F0xx_HAL_Driver/Inc/stm32f0xx_ll_system.h **** #define LL_SYSCFG_TIM2_RMP_DMA1_CH7        ((SYSCFG_CFGR1_TIM2_DMA_RMP >> 8U) | SYSCFG_CFGR1_TIM2_D
 187:Drivers/STM32F0xx_HAL_Driver/Inc/stm32f0xx_ll_system.h **** #endif /*SYSCFG_CFGR1_TIM2_DMA_RMP*/
 188:Drivers/STM32F0xx_HAL_Driver/Inc/stm32f0xx_ll_system.h **** #if defined (SYSCFG_CFGR1_TIM3_DMA_RMP)
 189:Drivers/STM32F0xx_HAL_Driver/Inc/stm32f0xx_ll_system.h **** #define LL_SYSCFG_TIM3_RMP_DMA1_CH4        ((SYSCFG_CFGR1_TIM3_DMA_RMP >> 8U) | (uint32_t)0x0000000
 190:Drivers/STM32F0xx_HAL_Driver/Inc/stm32f0xx_ll_system.h **** #define LL_SYSCFG_TIM3_RMP_DMA1_CH6        ((SYSCFG_CFGR1_TIM3_DMA_RMP >> 8U) | SYSCFG_CFGR1_TIM3_D
 191:Drivers/STM32F0xx_HAL_Driver/Inc/stm32f0xx_ll_system.h **** #endif /*SYSCFG_CFGR1_TIM3_DMA_RMP*/
 192:Drivers/STM32F0xx_HAL_Driver/Inc/stm32f0xx_ll_system.h **** /**
 193:Drivers/STM32F0xx_HAL_Driver/Inc/stm32f0xx_ll_system.h ****   * @}
 194:Drivers/STM32F0xx_HAL_Driver/Inc/stm32f0xx_ll_system.h ****   */
 195:Drivers/STM32F0xx_HAL_Driver/Inc/stm32f0xx_ll_system.h **** 
 196:Drivers/STM32F0xx_HAL_Driver/Inc/stm32f0xx_ll_system.h **** #endif /* SYSCFG_CFGR1_TIM16_DMA_RMP || SYSCFG_CFGR1_TIM17_DMA_RMP || SYSCFG_CFGR1_TIM1_DMA_RMP || 
 197:Drivers/STM32F0xx_HAL_Driver/Inc/stm32f0xx_ll_system.h **** 
 198:Drivers/STM32F0xx_HAL_Driver/Inc/stm32f0xx_ll_system.h **** /** @defgroup SYSTEM_LL_EC_I2C_FASTMODEPLUS SYSCFG I2C FASTMODEPLUS
 199:Drivers/STM32F0xx_HAL_Driver/Inc/stm32f0xx_ll_system.h ****   * @{
 200:Drivers/STM32F0xx_HAL_Driver/Inc/stm32f0xx_ll_system.h ****   */
